LX51 LINKER/LOCATER V4.66.41.0                                                          03/18/2016  11:02:42  PAGE 1


LX51 LINKER/LOCATER V4.66.41.0, INVOKED BY:
D:\KEIL_V5\C51\BIN\LX51.EXE START_XC.obj, MAIN.obj, UART.obj, DeviceController.obj, FlashHandler.obj, IO.obj, FlashUtils
>> .obj TO TestBoard CODE CLASSES (XDATA (X:0XF000-X:0XF5FF), HDATA (X:0XF000-X:0XF5FF), CODE (C:0X0-C:0X5FFF, C:0XA000-
>> C:0XBFFF), CONST (C:0X0-C:0X5FFF, C:0XA000-C:0XBFFF), ECODE (C:0X0-C:0X5FFF, C:0XA000-C:0XBFFF), HCONST (C:0X0-C:0X5F
>> FF, C:0XA000-C:0XBFFF))


CPU MODE:     8051 MODE
MEMORY MODEL: SMALL


INPUT MODULES INCLUDED:
  START_XC.obj (?C_STARTUP)
         COMMENT TYPE 0: AX51 V3.13.0.0
  MAIN.obj (MAIN)
         COMMENT TYPE 0: C51 V9.54
  UART.obj (UART)
         COMMENT TYPE 0: C51 V9.54
  DeviceController.obj (DEVICECONTROLLER)
         COMMENT TYPE 0: C51 V9.54
  FlashHandler.obj (FLASHHANDLER)
         COMMENT TYPE 0: C51 V9.54
  IO.obj (IO)
         COMMENT TYPE 0: C51 V9.54
  FlashUtils.obj (FLASHUTILS)
         COMMENT TYPE 0: C51 V9.54
  D:\KEIL_V5\C51\LIB\C51S.LIB (?C_INIT)
         COMMENT TYPE 1: A51 / ASM51 Assembler
  D:\KEIL_V5\C51\LIB\C51S.LIB (?C?COPY)
         COMMENT TYPE 1: A51 / ASM51 Assembler
  D:\KEIL_V5\C51\LIB\C51S.LIB (?C?CLDPTR)
         COMMENT TYPE 1: A51 / ASM51 Assembler
  D:\KEIL_V5\C51\LIB\C51S.LIB (?C?CLDOPTR)
         COMMENT TYPE 1: A51 / ASM51 Assembler
  D:\KEIL_V5\C51\LIB\C51S.LIB (?C?ILDPTR)
         COMMENT TYPE 1: A51 / ASM51 Assembler
  D:\KEIL_V5\C51\LIB\C51S.LIB (?C?IILDPTR)
         COMMENT TYPE 1: A51 / ASM51 Assembler
  D:\KEIL_V5\C51\LIB\C51S.LIB (?C?ISTPTR)
         COMMENT TYPE 1: A51 / ASM51 Assembler
  D:\KEIL_V5\C51\LIB\C51S.LIB (STRNCPY)
         COMMENT TYPE 1: C51 Compiler
  D:\KEIL_V5\C51\LIB\C51S.LIB (STRLEN)
         COMMENT TYPE 1: A51 / ASM51 Assembler
  D:\KEIL_V5\C51\LIB\C51S.LIB (?C?MEMSET)
         COMMENT TYPE 1: A51 / ASM51 Assembler
  D:\KEIL_V5\C51\LIB\C51S.LIB (?C?CSTOPTR)
         COMMENT TYPE 1: A51 / ASM51 Assembler
  D:\KEIL_V5\C51\LIB\C51S.LIB (?C?IILDX)
         COMMENT TYPE 1: A51 / ASM51 Assembler


ACTIVE MEMORY CLASSES OF MODULE:  TestBoard (?C_STARTUP)

BASE        START       END         USED      MEMORY CLASS
==========================================================
X:000000H   X:00F000H   X:00F5FFH   0001D5H   XDATA
X:000000H   X:00F000H   X:00F5FFH             HDATA
C:000000H   C:000000H   C:005FFFH   000B8CH   CODE
            C:00A000H   C:00BFFFH               
C:000000H   C:000000H   C:005FFFH   000020H   CONST
            C:00A000H   C:00BFFFH               
C:000000H   C:000000H   C:005FFFH             ECODE
            C:00A000H   C:00BFFFH               
B00:0000H   C:000000H   C:005FFFH             HCONST
            C:00A000H   C:00BFFFH               
LX51 LINKER/LOCATER V4.66.41.0                                                        03/18/2016  11:02:42  PAGE 2


I:000000H   I:000000H   I:0000FFH   000021H   IDATA
I:000020H.0 I:000020H.0 I:00002FH.7 000000H.4 BIT
I:000000H   I:000000H   I:00007FH   00002DH   DATA


MEMORY MAP OF MODULE:  TestBoard (?C_STARTUP)


START     STOP      LENGTH    ALIGN  RELOC    MEMORY CLASS   SEGMENT NAME
=========================================================================

* * * * * * * * * * *   D A T A   M E M O R Y   * * * * * * * * * * * * *
000000H   000007H   000008H   ---    AT..     DATA           "REG BANK 0"
000008H   000009H   000002H   BYTE   UNIT     DATA           ?DT?UART
00000AH.0 00001FH.7 000016H.0 ---    ---      **GAP**
000020H.0 000020H.2 000000H.3 BIT    UNIT     BIT            _BIT_GROUP_
000020H.3 000020H.3 000000H.1 BIT    UNIT     BIT            ?BI?MAIN
000020H.4 000035H   000015H.4 ---    ---      **GAP**
000036H   00003DH   000008H   BYTE   OFFS..   DATA           ?DA?FLASHHANDLER?1
00003EH   000058H   00001BH   BYTE   UNIT     DATA           _DATA_GROUP_
000059H   000059H   000001H   BYTE   UNIT     IDATA          ?STACK
00005AH   0000DFH   000086H   ---    ---      **GAP**
0000E0H   0000FFH   000020H   BYTE   OFFS..   IDATA          ?ID?FLASHHANDLER?0

* * * * * * * * * * *   C O D E   M E M O R Y   * * * * * * * * * * * * *
000000H   000002H   000003H   ---    OFFS..   CODE           ?CO?START_XC?3
000003H   000017H   000015H   BYTE   UNIT     CODE           ?PR?_STRLEN?STRLEN
000018H   00001FH   000008H   BYTE   UNIT     CODE           ?CO?MAIN
000020H   000022H   000003H   BYTE   UNIT     CODE           ?PR?ISALLHVRELAYOK?DEVICECONTROLLER
000023H   000025H   000003H   BYTE   OFFS..   CODE           ?UART?00023
000026H   000247H   000222H   BYTE   UNIT     CODE           ?C?LIB_CODE
000248H   00036AH   000123H   BYTE   UNIT     CODE           ?CO?DEVICECONTROLLER
00036BH   000444H   0000DAH   BYTE   UNIT     CODE           ?CO?UART
000445H   0004DEH   00009AH   BYTE   UNIT     CODE           ?C_C51STARTUP
0004DFH   00054DH   00006FH   BYTE   UNIT     CODE           ?C_INITSEG
00054EH   00059FH   000052H   BYTE   UNIT     CODE           ?PR?_STRNCPY?STRNCPY
0005A0H   0005BFH   000020H   BYTE   UNIT     CONST          ?CO?FLASHUTILS
0005C0H   0005D8H   000019H   BYTE   UNIT     CODE           ?PR?MAIN_VINIT?MAIN
0005D9H   0005E4H   00000CH   BYTE   UNIT     CODE           ?PR?IO_VINIT?IO
0005E5H   0005FDH   000019H   BYTE   UNIT     CODE           ?PR?MAIN?MAIN
0005FEH   000618H   00001BH   BYTE   UNIT     CODE           ?PR?_SENDUART?UART
000619H   000687H   00006FH   BYTE   UNIT     CODE           ?PR?_SETUUID?DEVICECONTROLLER
000688H   0006A2H   00001BH   BYTE   UNIT     CODE           ?PR?SENDUUID?DEVICECONTROLLER
0006A3H   000798H   0000F6H   BYTE   UNIT     CODE           ?PR?_PROCESSCOMMAND?UART
000799H   0007AAH   000012H   BYTE   UNIT     CODE           ?PR?SENDHVRELAYSTATUS?DEVICECONTROLLER
0007ABH   0007D4H   00002AH   BYTE   UNIT     CODE           ?PR?GETFLASHDATAENDADDRESS?FLASHUTILS
0007D5H   0007FAH   000026H   BYTE   UNIT     CODE           ?PR?UART_VINIT?UART
0007FBH   00082EH   000034H   BYTE   UNIT     CODE           ?PR?_DELAY?MAIN
00082FH   0008C9H   00009BH   BYTE   UNIT     CODE           ?PR?UART_VIISR?UART
0008CAH   00090DH   000044H   BYTE   UNIT     CODE           ?PR?_ENABLELCCHANNEL?DEVICECONTROLLER
00090EH   000951H   000044H   BYTE   UNIT     CODE           ?PR?_ENABLELCRCHANNEL?DEVICECONTROLLER
000952H   000996H   000045H   BYTE   UNIT     CODE           ?PR?_SETCHARGEMODE?DEVICECONTROLLER
000997H   0009BFH   000029H   BYTE   UNIT     CODE           ?PR?_SETHVMONITORMODE?DEVICECONTROLLER
0009C0H   0009C4H   000005H   BYTE   UNIT     CODE           ?PR?FLASH_ERASE_ABORT?FLASHHANDLER
0009C5H   0009C8H   000004H   BYTE   UNIT     CODE           ?PR?_FLASH_READY?FLASHHANDLER
0009C9H   000A5BH   000093H   BYTE   UNIT     CODE           ?PR?_READFLASHTOBUFFER?FLASHUTILS
000A5CH   000A73H   000018H   BYTE   UNIT     CODE           ?PR?_FLASH_PROG?FLASHHANDLER
000A74H   000AC5H   000052H   BYTE   UNIT     CODE           ?PR?_WRITETOFLASHPAGE?FLASHUTILS
000AC6H   000B7DH   0000B8H   BYTE   UNIT     CODE           ?PR?_WRITEBUFFERTOFLASH?FLASHUTILS
000B7EH   000BABH   00002EH   BYTE   UNIT     CODE           ?PR?_FLASH_ERASE?FLASHHANDLER

* * * * * * * * * * *  X D A T A   M E M O R Y  * * * * * * * * * * * * *
00F000H   00F10CH   00010DH   BYTE   UNIT     XDATA          _XDATA_GROUP_
00F10DH   00F170H   000064H   BYTE   UNIT     XDATA          ?XD?MAIN
00F171H   00F1D4H   000064H   BYTE   UNIT     XDATA          ?XD?UART
LX51 LINKER/LOCATER V4.66.41.0                                                        03/18/2016  11:02:42  PAGE 3





OVERLAY MAP OF MODULE:   TestBoard (?C_STARTUP)


FUNCTION/MODULE                          BIT_GROUP   DATA_GROUP   XDATA_GROUP
--> CALLED FUNCTION/MODULE              START  STOP  START  STOP  START  STOP
=============================================================================
?C_C51STARTUP                           ----- -----  ----- -----  ----- -----
  +--> MAIN/MAIN
  +--> ?C_INITSEG

MAIN/MAIN                               ----- -----  ----- -----  ----- -----
  +--> MAIN_VINIT/MAIN
  +--> ISALLHVRELAYOK/DEVICECONTROLLER
  +--> ?CO?MAIN
  +--> _SENDUART/UART
  +--> _DELAY/MAIN

MAIN_VINIT/MAIN                         ----- -----  ----- -----  ----- -----
  +--> IO_VINIT/IO
  +--> UART_VINIT/UART

IO_VINIT/IO                             ----- -----  ----- -----  ----- -----

UART_VINIT/UART                         ----- -----  ----- -----  ----- -----

ISALLHVRELAYOK/DEVICECONTROLLER         ----- -----  ----- -----  ----- -----

?CO?MAIN                                ----- -----  ----- -----  ----- -----

_SENDUART/UART                          ----- -----  ----- -----  ----- -----

_DELAY/MAIN                             ----- -----  ----- -----  ----- -----

?C_INITSEG                              ----- -----  ----- -----  ----- -----

*** NEW ROOT **************************

UART_VIISR/UART                         ----- -----  003EH 003EH  ----- -----
  +--> _PROCESSCOMMAND/UART

_PROCESSCOMMAND/UART                    20H.0 20H.1  003FH 0043H  F000H F0C7H
  +--> _STRLEN/STRLEN
  +--> ?CO?UART
  +--> _ENABLELCRCHANNEL/DEVICECONTROLLER
  +--> _ENABLELCCHANNEL/DEVICECONTROLLER
  +--> _SETCHARGEMODE/DEVICECONTROLLER
  +--> SENDHVRELAYSTATUS/DEVICECONTROLLER
  +--> _SETHVMONITORMODE/DEVICECONTROLLER
  +--> SENDUUID/DEVICECONTROLLER
  +--> _SETUUID/DEVICECONTROLLER
  +--> _SENDUART/UART

_STRLEN/STRLEN                          ----- -----  ----- -----  ----- -----

?CO?UART                                ----- -----  ----- -----  ----- -----

_ENABLELCRCHANNEL/DEVICECONTROLLER      ----- -----  ----- -----  ----- -----
  +--> ?CO?DEVICECONTROLLER
  +--> _SENDUART/UART

?CO?DEVICECONTROLLER                    ----- -----  ----- -----  ----- -----

LX51 LINKER/LOCATER V4.66.41.0                                                        03/18/2016  11:02:42  PAGE 4


_ENABLELCCHANNEL/DEVICECONTROLLER       ----- -----  ----- -----  ----- -----
  +--> ?CO?DEVICECONTROLLER
  +--> _SENDUART/UART

_SETCHARGEMODE/DEVICECONTROLLER         ----- -----  0044H 0044H  ----- -----
  +--> ISALLHVRELAYOK/DEVICECONTROLLER
  +--> ?CO?DEVICECONTROLLER
  +--> _SENDUART/UART

SENDHVRELAYSTATUS/DEVICECONTROLLER      ----- -----  ----- -----  ----- -----
  +--> ISALLHVRELAYOK/DEVICECONTROLLER
  +--> ?CO?DEVICECONTROLLER
  +--> _SENDUART/UART

_SETHVMONITORMODE/DEVICECONTROLLER      ----- -----  0044H 0044H  ----- -----
  +--> ?CO?DEVICECONTROLLER
  +--> _SENDUART/UART

SENDUUID/DEVICECONTROLLER               ----- -----  ----- -----  F0C8H F0F9H
  +--> GETFLASHDATAENDADDRESS/FLASHUTILS
  +--> _READFLASHTOBUFFER/FLASHUTILS
  +--> _SENDUART/UART
  +--> ?CO?DEVICECONTROLLER

GETFLASHDATAENDADDRESS/FLASHUTILS       ----- -----  ----- -----  ----- -----

_READFLASHTOBUFFER/FLASHUTILS           ----- -----  0044H 0051H  ----- -----
  +--> _FLASH_READY/FLASHHANDLER

_FLASH_READY/FLASHHANDLER               ----- -----  ----- -----  ----- -----

_SETUUID/DEVICECONTROLLER               ----- -----  0044H 0048H  F0C8H F0ECH
  +--> GETFLASHDATAENDADDRESS/FLASHUTILS
  +--> ?CO?DEVICECONTROLLER
  +--> _STRNCPY/STRNCPY
  +--> _SENDUART/UART
  +--> _WRITEBUFFERTOFLASH/FLASHUTILS

_STRNCPY/STRNCPY                        ----- -----  0049H 0052H  ----- -----

_WRITEBUFFERTOFLASH/FLASHUTILS          ----- -----  0049H 0053H  F0EDH F10CH
  +--> ?CO?FLASHUTILS
  +--> _FLASH_ERASE/FLASHHANDLER
  +--> _DELAY/MAIN
  +--> _WRITETOFLASHPAGE/FLASHUTILS

?CO?FLASHUTILS                          ----- -----  ----- -----  ----- -----

_FLASH_ERASE/FLASHHANDLER               20H.2 20H.2  0054H 0057H  ----- -----

_WRITETOFLASHPAGE/FLASHUTILS            ----- -----  0054H 0058H  ----- -----
  +--> _FLASH_PROG/FLASHHANDLER
  +--> _DELAY/MAIN

_FLASH_PROG/FLASHHANDLER                20H.2 20H.2  ----- -----  ----- -----



PUBLIC SYMBOLS OF MODULE:  TestBoard (?C_STARTUP)


      VALUE       CLASS    TYPE      PUBLIC SYMBOL NAME
      =================================================
      00000049H   DATA     ---       ?_strncpy?BYTE
      00000049H   DATA     BYTE      ?_writeBufferToFlash?BYTE
LX51 LINKER/LOCATER V4.66.41.0                                                        03/18/2016  11:02:42  PAGE 5


      01000135H   CODE     ---       ?C?CLDOPTR
      0100011CH   CODE     ---       ?C?CLDPTR
      00000000H   NUMBER   ---       ?C?CODESEG
      010000F6H   CODE     ---       ?C?COPY
      01000210H   CODE     ---       ?C?CSTOPTR
      000000A2H   DATA     BYTE      ?C?DPSEL
      0100018DH   CODE     ---       ?C?IILDPTR
      01000232H   CODE     ---       ?C?IILDX
      01000162H   CODE     ---       ?C?ILDPTR
      010001C5H   CODE     ---       ?C?ISTPTR
      010001E4H   CODE     ---       ?C?MEMSET
      00000000H   NUMBER   ---       ?C?XDATASEG
      0100049AH   CODE     ---       ?C_START
      01000000H   CODE     NEAR LAB  ?C_STARTUP
      010007FBH   CODE     ---       _delay
      010008CAH   CODE     ---       _enableLCChannel
      0100090EH   CODE     ---       _enableLCRChannel
      01000B7EH   CODE     ---       _FLASH_Erase
      01000A5CH   CODE     ---       _FLASH_Prog
      010009C5H   CODE     ---       _FLASH_Ready
      010006A3H   CODE     ---       _processCommand
      010009C9H   CODE     ---       _readFlashToBuffer
      01000604H   CODE     ---       _sendUART
      01000952H   CODE     ---       _setChargeMode
      01000997H   CODE     ---       _setHVMonitorMode
      01000619H   CODE     ---       _setUUID
      01000003H   CODE     ---       _STRLEN
      0100054EH   CODE     ---       _strncpy
      01000AC6H   CODE     ---       _writeBufferToFlash
      01000A74H   CODE     ---       _writeToFlashPage
*SFR* 000000D0H.6 DATA     BIT       AC
*SFR* 000000E0H   DATA     BYTE      ACC
*SFR* 000000CAH   DATA     BYTE      ADC_CHCTR0
*SFR* 000000CBH   DATA     BYTE      ADC_CHCTR1
*SFR* 000000CCH   DATA     BYTE      ADC_CHCTR2
*SFR* 000000CDH   DATA     BYTE      ADC_CHCTR3
*SFR* 000000CEH   DATA     BYTE      ADC_CHCTR4
*SFR* 000000CFH   DATA     BYTE      ADC_CHCTR5
*SFR* 000000D2H   DATA     BYTE      ADC_CHCTR6
*SFR* 000000D3H   DATA     BYTE      ADC_CHCTR7
*SFR* 000000CBH   DATA     BYTE      ADC_CHINCR
*SFR* 000000CAH   DATA     BYTE      ADC_CHINFR
*SFR* 000000CDH   DATA     BYTE      ADC_CHINPR
*SFR* 000000CCH   DATA     BYTE      ADC_CHINSR
*SFR* 000000CAH   DATA     BYTE      ADC_CRCR1
*SFR* 000000CCH   DATA     BYTE      ADC_CRMR1
*SFR* 000000CBH   DATA     BYTE      ADC_CRPR1
*SFR* 000000CFH   DATA     BYTE      ADC_ETRCR
*SFR* 000000CFH   DATA     BYTE      ADC_EVINCR
*SFR* 000000CEH   DATA     BYTE      ADC_EVINFR
*SFR* 000000D3H   DATA     BYTE      ADC_EVINPR
*SFR* 000000D2H   DATA     BYTE      ADC_EVINSR
*SFR* 000000CAH   DATA     BYTE      ADC_GLOBCTR
*SFR* 000000CBH   DATA     BYTE      ADC_GLOBSTR
*SFR* 000000CEH   DATA     BYTE      ADC_INPCR0
*SFR* 000000CDH   DATA     BYTE      ADC_LCBR
*SFR* 000000D1H   DATA     BYTE      ADC_PAGE
*SFR* 000000CCH   DATA     BYTE      ADC_PRAR
*SFR* 000000CFH   DATA     BYTE      ADC_Q0R0
*SFR* 000000D2H   DATA     BYTE      ADC_QBUR0
*SFR* 000000D2H   DATA     BYTE      ADC_QINR0
*SFR* 000000CDH   DATA     BYTE      ADC_QMR0
*SFR* 000000CEH   DATA     BYTE      ADC_QSR0
*SFR* 000000CAH   DATA     BYTE      ADC_RCR0
*SFR* 000000CBH   DATA     BYTE      ADC_RCR1
LX51 LINKER/LOCATER V4.66.41.0                                                        03/18/2016  11:02:42  PAGE 6


*SFR* 000000CCH   DATA     BYTE      ADC_RCR2
*SFR* 000000CDH   DATA     BYTE      ADC_RCR3
*SFR* 000000CBH   DATA     BYTE      ADC_RESR0H
*SFR* 000000CAH   DATA     BYTE      ADC_RESR0L
*SFR* 000000CAH   DATA     WORD      ADC_RESR0LH
*SFR* 000000CDH   DATA     BYTE      ADC_RESR1H
*SFR* 000000CCH   DATA     BYTE      ADC_RESR1L
*SFR* 000000CCH   DATA     WORD      ADC_RESR1LH
*SFR* 000000CFH   DATA     BYTE      ADC_RESR2H
*SFR* 000000CEH   DATA     BYTE      ADC_RESR2L
*SFR* 000000CEH   DATA     WORD      ADC_RESR2LH
*SFR* 000000D3H   DATA     BYTE      ADC_RESR3H
*SFR* 000000D2H   DATA     BYTE      ADC_RESR3L
*SFR* 000000D2H   DATA     WORD      ADC_RESR3LH
*SFR* 000000CBH   DATA     BYTE      ADC_RESRA0H
*SFR* 000000CAH   DATA     BYTE      ADC_RESRA0L
*SFR* 000000CAH   DATA     WORD      ADC_RESRA0LH
*SFR* 000000CDH   DATA     BYTE      ADC_RESRA1H
*SFR* 000000CCH   DATA     BYTE      ADC_RESRA1L
*SFR* 000000CCH   DATA     WORD      ADC_RESRA1LH
*SFR* 000000CFH   DATA     BYTE      ADC_RESRA2H
*SFR* 000000CEH   DATA     BYTE      ADC_RESRA2L
*SFR* 000000CEH   DATA     WORD      ADC_RESRA2LH
*SFR* 000000D3H   DATA     BYTE      ADC_RESRA3H
*SFR* 000000D2H   DATA     BYTE      ADC_RESRA3L
*SFR* 000000D2H   DATA     WORD      ADC_RESRA3LH
*SFR* 000000CEH   DATA     BYTE      ADC_VFCR
*SFR* 000000F0H   DATA     BYTE      B
*SFR* 000000BDH   DATA     BYTE      BCON
*SFR* 000000BEH   DATA     BYTE      BG
*SFR* 000000C0H.1 DATA     BIT       C_T2
*SFR* 000000D8H   DATA     BYTE      CAN_ADCON
*SFR* 000000DAH   DATA     BYTE      CAN_ADH
*SFR* 000000D9H   DATA     BYTE      CAN_ADL
*SFR* 000000D9H   DATA     WORD      CAN_ADLH
*SFR* 000000DBH   DATA     BYTE      CAN_DATA0
*SFR* 000000DBH   DATA     WORD      CAN_DATA01
*SFR* 000000DCH   DATA     BYTE      CAN_DATA1
*SFR* 000000DDH   DATA     BYTE      CAN_DATA2
*SFR* 000000DDH   DATA     WORD      CAN_DATA23
*SFR* 000000DEH   DATA     BYTE      CAN_DATA3
*SFR* 000000FBH   DATA     BYTE      CCU6_CC60RH
*SFR* 000000FAH   DATA     BYTE      CCU6_CC60RL
*SFR* 000000FAH   DATA     WORD      CCU6_CC60RLH
*SFR* 000000FBH   DATA     BYTE      CCU6_CC60SRH
*SFR* 000000FAH   DATA     BYTE      CCU6_CC60SRL
*SFR* 000000FAH   DATA     WORD      CCU6_CC60SRLH
*SFR* 000000FDH   DATA     BYTE      CCU6_CC61RH
*SFR* 000000FCH   DATA     BYTE      CCU6_CC61RL
*SFR* 000000FCH   DATA     WORD      CCU6_CC61RLH
*SFR* 000000FDH   DATA     BYTE      CCU6_CC61SRH
*SFR* 000000FCH   DATA     BYTE      CCU6_CC61SRL
*SFR* 000000FCH   DATA     WORD      CCU6_CC61SRLH
*SFR* 000000FFH   DATA     BYTE      CCU6_CC62RH
*SFR* 000000FEH   DATA     BYTE      CCU6_CC62RL
*SFR* 000000FEH   DATA     WORD      CCU6_CC62RLH
*SFR* 000000FFH   DATA     BYTE      CCU6_CC62SRH
*SFR* 000000FEH   DATA     BYTE      CCU6_CC62SRL
*SFR* 000000FEH   DATA     WORD      CCU6_CC62SRLH
*SFR* 0000009BH   DATA     BYTE      CCU6_CC63RH
*SFR* 0000009AH   DATA     BYTE      CCU6_CC63RL
*SFR* 0000009AH   DATA     WORD      CCU6_CC63RLH
*SFR* 0000009BH   DATA     BYTE      CCU6_CC63SRH
*SFR* 0000009AH   DATA     BYTE      CCU6_CC63SRL
*SFR* 0000009AH   DATA     WORD      CCU6_CC63SRLH
LX51 LINKER/LOCATER V4.66.41.0                                                        03/18/2016  11:02:42  PAGE 7


*SFR* 000000A7H   DATA     BYTE      CCU6_CMPMODIFH
*SFR* 000000A6H   DATA     BYTE      CCU6_CMPMODIFL
*SFR* 000000FFH   DATA     BYTE      CCU6_CMPSTATH
*SFR* 000000FEH   DATA     BYTE      CCU6_CMPSTATL
*SFR* 0000009DH   DATA     BYTE      CCU6_IENH
*SFR* 0000009CH   DATA     BYTE      CCU6_IENL
*SFR* 0000009FH   DATA     BYTE      CCU6_INPH
*SFR* 0000009EH   DATA     BYTE      CCU6_INPL
*SFR* 0000009DH   DATA     BYTE      CCU6_ISH
*SFR* 0000009CH   DATA     BYTE      CCU6_ISL
*SFR* 000000A5H   DATA     BYTE      CCU6_ISRH
*SFR* 000000A4H   DATA     BYTE      CCU6_ISRL
*SFR* 000000A5H   DATA     BYTE      CCU6_ISSH
*SFR* 000000A4H   DATA     BYTE      CCU6_ISSL
*SFR* 000000A7H   DATA     BYTE      CCU6_MCMCTR
*SFR* 0000009BH   DATA     BYTE      CCU6_MCMOUTH
*SFR* 0000009AH   DATA     BYTE      CCU6_MCMOUTL
*SFR* 0000009FH   DATA     BYTE      CCU6_MCMOUTSH
*SFR* 0000009EH   DATA     BYTE      CCU6_MCMOUTSL
*SFR* 000000FDH   DATA     BYTE      CCU6_MODCTRH
*SFR* 000000FCH   DATA     BYTE      CCU6_MODCTRL
*SFR* 000000A3H   DATA     BYTE      CCU6_PAGE
*SFR* 0000009FH   DATA     BYTE      CCU6_PISEL0H
*SFR* 0000009EH   DATA     BYTE      CCU6_PISEL0L
*SFR* 000000A4H   DATA     BYTE      CCU6_PISEL2
*SFR* 000000A6H   DATA     BYTE      CCU6_PSLR
*SFR* 000000A5H   DATA     BYTE      CCU6_T12DTCH
*SFR* 000000A4H   DATA     BYTE      CCU6_T12DTCL
*SFR* 000000FBH   DATA     BYTE      CCU6_T12H
*SFR* 000000FAH   DATA     BYTE      CCU6_T12L
*SFR* 000000FAH   DATA     WORD      CCU6_T12LH
*SFR* 0000009BH   DATA     BYTE      CCU6_T12MSELH
*SFR* 0000009AH   DATA     BYTE      CCU6_T12MSELL
*SFR* 0000009DH   DATA     BYTE      CCU6_T12PRH
*SFR* 0000009CH   DATA     BYTE      CCU6_T12PRL
*SFR* 0000009CH   DATA     WORD      CCU6_T12PRLH
*SFR* 000000FDH   DATA     BYTE      CCU6_T13H
*SFR* 000000FCH   DATA     BYTE      CCU6_T13L
*SFR* 000000FCH   DATA     WORD      CCU6_T13LH
*SFR* 0000009FH   DATA     BYTE      CCU6_T13PRH
*SFR* 0000009EH   DATA     BYTE      CCU6_T13PRL
*SFR* 0000009EH   DATA     WORD      CCU6_T13PRLH
*SFR* 000000A7H   DATA     BYTE      CCU6_TCTR0H
*SFR* 000000A6H   DATA     BYTE      CCU6_TCTR0L
*SFR* 000000FBH   DATA     BYTE      CCU6_TCTR2H
*SFR* 000000FAH   DATA     BYTE      CCU6_TCTR2L
*SFR* 0000009DH   DATA     BYTE      CCU6_TCTR4H
*SFR* 0000009CH   DATA     BYTE      CCU6_TCTR4L
*SFR* 000000FFH   DATA     BYTE      CCU6_TRPCTRH
*SFR* 000000FEH   DATA     BYTE      CCU6_TRPCTRL
*SFR* 000000A0H   DATA     BIT       CD_BSY
*SFR* 000000A1H   DATA     BYTE      CD_CON
*SFR* 0000009BH   DATA     BYTE      CD_CORDXH
*SFR* 0000009AH   DATA     BYTE      CD_CORDXL
*SFR* 0000009DH   DATA     BYTE      CD_CORDYH
*SFR* 0000009CH   DATA     BYTE      CD_CORDYL
*SFR* 0000009FH   DATA     BYTE      CD_CORDZH
*SFR* 0000009EH   DATA     BYTE      CD_CORDZL
*SFR* 000000A0H   DATA     BYTE      CD_STATC
*SFR* 000000BAH   DATA     BYTE      CMCON
*SFR* 000000BEH   DATA     BYTE      COCON
*SFR* 000000C0H   DATA     BIT       CP_RL2
*SFR* 000000D0H.7 DATA     BIT       CY
*SFR* 000000A0H.4 DATA     BIT       DMAP
*SFR* 00000083H   DATA     BYTE      DPH
LX51 LINKER/LOCATER V4.66.41.0                                                        03/18/2016  11:02:42  PAGE 8


*SFR* 00000082H   DATA     BYTE      DPL
*SFR* 00000082H   DATA     WORD      DPTR
*SFR* 000000A8H.7 DATA     BIT       EA
*SFR* 000000E8H   DATA     BIT       EADC
*SFR* 000000E8H.4 DATA     BIT       ECCIP0
*SFR* 000000E8H.5 DATA     BIT       ECCIP1
*SFR* 000000E8H.6 DATA     BIT       ECCIP2
*SFR* 000000E8H.7 DATA     BIT       ECCIP3
*SFR* 000000A2H   DATA     BYTE      EO
*SFR* 000000A0H.2 DATA     BIT       EOC
*SFR* 000000A0H.1 DATA     BIT       ERROR
*SFR* 000000A8H.4 DATA     BIT       ES
*SFR* 000000E8H.1 DATA     BIT       ESSC
*SFR* 000000A8H.1 DATA     BIT       ET0
*SFR* 000000A8H.3 DATA     BIT       ET1
*SFR* 000000A8H.5 DATA     BIT       ET2
*SFR* 000000A8H   DATA     BIT       EX0
*SFR* 000000A8H.2 DATA     BIT       EX1
*SFR* 000000E8H.2 DATA     BIT       EX2
*SFR* 000000C0H.3 DATA     BIT       EXEN2
*SFR* 000000C0H.6 DATA     BIT       EXF2
*SFR* 000000B7H   DATA     BYTE      EXICON0
*SFR* 000000BAH   DATA     BYTE      EXICON1
*SFR* 000000E8H.3 DATA     BIT       EXM
*SFR* 000000D0H.5 DATA     BIT       F0
*SFR* 000000D0H.1 DATA     BIT       F1
*SFR* 000000E9H   DATA     BYTE      FDCON
*SFR* 000000EBH   DATA     BYTE      FDRES
*SFR* 000000EAH   DATA     BYTE      FDSTEP
*SFR* 000000BDH   DATA     BYTE      FEAH
*SFR* 000000BCH   DATA     BYTE      FEAL
      010009C0H   CODE     ---       FLASH_Erase_Abort
      010007ABH   CODE     ---       getFlashDataEndAddress
*SFR* 000000F7H   DATA     BYTE      HWBPDR
*SFR* 000000F6H   DATA     BYTE      HWBPSR
*SFR* 000000B3H   DATA     BYTE      ID
*SFR* 00000088H.1 DATA     BIT       IE0
*SFR* 00000088H.3 DATA     BIT       IE1
*SFR* 000000A8H   DATA     BYTE      IEN0
*SFR* 000000E8H   DATA     BYTE      IEN1
*SFR* 000000B0H.1 DATA     BIT       IERR
*SFR* 000000A0H.3 DATA     BIT       INT_EN
      010005D9H   CODE     ---       IO_vInit
*SFR* 000000B8H   DATA     BYTE      IP
*SFR* 000000F8H   DATA     BYTE      IP1
*SFR* 000000B9H   DATA     BYTE      IPH
*SFR* 000000F9H   DATA     BYTE      IPH1
*SFR* 000000B4H   DATA     BYTE      IRCON0
*SFR* 000000B5H   DATA     BYTE      IRCON1
*SFR* 000000B6H   DATA     BYTE      IRCON2
*SFR* 000000B4H   DATA     BYTE      IRCON3
*SFR* 000000B5H   DATA     BYTE      IRCON4
*SFR* 000000B0H   DATA     BIT       IRDY
      01000020H   CODE     ---       isAllHVRelayOK
*SFR* 00000088H   DATA     BIT       IT0
*SFR* 00000088H.2 DATA     BIT       IT1
*SFR* 000000A0H.5 DATA     BIT       KEEPX
*SFR* 000000A0H.6 DATA     BIT       KEEPY
*SFR* 000000A0H.7 DATA     BIT       KEEPZ
      00000036H   DATA     ---       MagicMemory
      010005E5H   CODE     ---       main
      010005C0H   CODE     ---       MAIN_vInit
*SFR* 000000B0H.2 DATA     BIT       MDU_BSY
*SFR* 000000B2H   DATA     BYTE      MDU_MD0
*SFR* 000000B3H   DATA     BYTE      MDU_MD1
LX51 LINKER/LOCATER V4.66.41.0                                                        03/18/2016  11:02:42  PAGE 9


*SFR* 000000B4H   DATA     BYTE      MDU_MD2
*SFR* 000000B5H   DATA     BYTE      MDU_MD3
*SFR* 000000B6H   DATA     BYTE      MDU_MD4
*SFR* 000000B7H   DATA     BYTE      MDU_MD5
*SFR* 000000B1H   DATA     BYTE      MDU_MDUCON
*SFR* 000000B0H   DATA     BYTE      MDU_MDUSTAT
*SFR* 000000B2H   DATA     BYTE      MDU_MR0
*SFR* 000000B3H   DATA     BYTE      MDU_MR1
*SFR* 000000B4H   DATA     BYTE      MDU_MR2
*SFR* 000000B5H   DATA     BYTE      MDU_MR3
*SFR* 000000B6H   DATA     BYTE      MDU_MR4
*SFR* 000000B7H   DATA     BYTE      MDU_MR5
*SFR* 000000E9H   DATA     BYTE      MISC_CON
*SFR* 000000F3H   DATA     BYTE      MMBPCR
*SFR* 000000F1H   DATA     BYTE      MMCR
*SFR* 000000E9H   DATA     BYTE      MMCR2
*SFR* 000000F5H   DATA     BYTE      MMDR
*SFR* 000000F4H   DATA     BYTE      MMICR
*SFR* 000000F2H   DATA     BYTE      MMSR
*SFR* 000000EBH   DATA     BYTE      MMWR1
*SFR* 000000ECH   DATA     BYTE      MMWR2
*SFR* 000000B3H   DATA     BYTE      MODPISEL
*SFR* 000000B7H   DATA     BYTE      MODPISEL1
*SFR* 000000BAH   DATA     BYTE      MODPISEL2
*SFR* 000000BDH   DATA     BYTE      MODSUSP
*SFR* 000000BBH   DATA     BYTE      NMICON
*SFR* 000000BCH   DATA     BYTE      NMISR
*SFR* 000000B6H   DATA     BYTE      OSC_CON
*SFR* 000000D0H.2 DATA     BIT       OV
*SFR* 000000D0H   DATA     BIT       P
*SFR* 00000080H   DATA     BIT       P0_0
*SFR* 00000080H.1 DATA     BIT       P0_1
*SFR* 00000080H.2 DATA     BIT       P0_2
*SFR* 00000080H.3 DATA     BIT       P0_3
*SFR* 00000080H.4 DATA     BIT       P0_4
*SFR* 00000080H.5 DATA     BIT       P0_5
*SFR* 00000080H.6 DATA     BIT       P0_6
*SFR* 00000080H.7 DATA     BIT       P0_7
*SFR* 00000080H   DATA     BYTE      P0_ALTSEL0
*SFR* 00000086H   DATA     BYTE      P0_ALTSEL1
*SFR* 00000080H   DATA     BYTE      P0_DATA
*SFR* 00000086H   DATA     BYTE      P0_DIR
*SFR* 00000080H   DATA     BYTE      P0_OD
*SFR* 00000086H   DATA     BYTE      P0_PUDEN
*SFR* 00000080H   DATA     BYTE      P0_PUDSEL
*SFR* 00000090H   DATA     BIT       P1_0
*SFR* 00000090H.1 DATA     BIT       P1_1
*SFR* 00000090H.2 DATA     BIT       P1_2
*SFR* 00000090H.3 DATA     BIT       P1_3
*SFR* 00000090H.4 DATA     BIT       P1_4
*SFR* 00000090H.5 DATA     BIT       P1_5
*SFR* 00000090H.6 DATA     BIT       P1_6
*SFR* 00000090H.7 DATA     BIT       P1_7
*SFR* 00000090H   DATA     BYTE      P1_ALTSEL0
*SFR* 00000091H   DATA     BYTE      P1_ALTSEL1
*SFR* 00000090H   DATA     BYTE      P1_DATA
*SFR* 00000091H   DATA     BYTE      P1_DIR
*SFR* 00000090H   DATA     BYTE      P1_OD
*SFR* 00000091H   DATA     BYTE      P1_PUDEN
*SFR* 00000090H   DATA     BYTE      P1_PUDSEL
*SFR* 000000A0H   DATA     BIT       P2_0
*SFR* 000000A0H.1 DATA     BIT       P2_1
*SFR* 000000A0H.2 DATA     BIT       P2_2
*SFR* 000000A0H.3 DATA     BIT       P2_3
*SFR* 000000A0H.4 DATA     BIT       P2_4
LX51 LINKER/LOCATER V4.66.41.0                                                        03/18/2016  11:02:42  PAGE 10


*SFR* 000000A0H.5 DATA     BIT       P2_5
*SFR* 000000A0H.6 DATA     BIT       P2_6
*SFR* 000000A0H.7 DATA     BIT       P2_7
*SFR* 000000A0H   DATA     BYTE      P2_DATA
*SFR* 000000A1H   DATA     BYTE      P2_DIR
*SFR* 000000A1H   DATA     BYTE      P2_PUDEN
*SFR* 000000A0H   DATA     BYTE      P2_PUDSEL
*SFR* 000000B0H   DATA     BIT       P3_0
*SFR* 000000B0H.1 DATA     BIT       P3_1
*SFR* 000000B0H.2 DATA     BIT       P3_2
*SFR* 000000B0H.3 DATA     BIT       P3_3
*SFR* 000000B0H.4 DATA     BIT       P3_4
*SFR* 000000B0H.5 DATA     BIT       P3_5
*SFR* 000000B0H.6 DATA     BIT       P3_6
*SFR* 000000B0H.7 DATA     BIT       P3_7
*SFR* 000000B0H   DATA     BYTE      P3_ALTSEL0
*SFR* 000000B1H   DATA     BYTE      P3_ALTSEL1
*SFR* 000000B0H   DATA     BYTE      P3_DATA
*SFR* 000000B1H   DATA     BYTE      P3_DIR
*SFR* 000000B0H   DATA     BYTE      P3_OD
*SFR* 000000B1H   DATA     BYTE      P3_PUDEN
*SFR* 000000B0H   DATA     BYTE      P3_PUDSEL
*SFR* 000000C8H   DATA     BIT       P4_0
*SFR* 000000C8H.1 DATA     BIT       P4_1
*SFR* 000000C8H.2 DATA     BIT       P4_2
*SFR* 000000C8H.3 DATA     BIT       P4_3
*SFR* 000000C8H.4 DATA     BIT       P4_4
*SFR* 000000C8H.5 DATA     BIT       P4_5
*SFR* 000000C8H.6 DATA     BIT       P4_6
*SFR* 000000C8H.7 DATA     BIT       P4_7
*SFR* 000000C8H   DATA     BYTE      P4_ALTSEL0
*SFR* 000000C9H   DATA     BYTE      P4_ALTSEL1
*SFR* 000000C8H   DATA     BYTE      P4_DATA
*SFR* 000000C9H   DATA     BYTE      P4_DIR
*SFR* 000000C8H   DATA     BYTE      P4_OD
*SFR* 000000C9H   DATA     BYTE      P4_PUDEN
*SFR* 000000C8H   DATA     BYTE      P4_PUDSEL
*SFR* 00000092H   DATA     BYTE      P5_ALTSEL0
*SFR* 00000093H   DATA     BYTE      P5_ALTSEL1
*SFR* 00000092H   DATA     BYTE      P5_DATA
*SFR* 00000093H   DATA     BYTE      P5_DIR
*SFR* 00000092H   DATA     BYTE      P5_OD
*SFR* 00000093H   DATA     BYTE      P5_PUDEN
*SFR* 00000092H   DATA     BYTE      P5_PUDSEL
*SFR* 000000F8H   DATA     BIT       PADC
*SFR* 000000BBH   DATA     BYTE      PASSWD
*SFR* 000000F8H.4 DATA     BIT       PCCIP0
*SFR* 000000F8H.5 DATA     BIT       PCCIP1
*SFR* 000000F8H.6 DATA     BIT       PCCIP2
*SFR* 000000F8H.7 DATA     BIT       PCCIP3
*SFR* 00000087H   DATA     BYTE      PCON
*SFR* 000000B7H   DATA     BYTE      PLL_CON
*SFR* 000000B4H   DATA     BYTE      PMCON0
*SFR* 000000B5H   DATA     BYTE      PMCON1
*SFR* 000000BBH   DATA     BYTE      PMCON2
*SFR* 000000B2H   DATA     BYTE      PORT_PAGE
*SFR* 000000B8H.4 DATA     BIT       PS
*SFR* 000000F8H.1 DATA     BIT       PSSC
*SFR* 000000D0H   DATA     BYTE      PSW
*SFR* 000000B8H.1 DATA     BIT       PT0
*SFR* 000000B8H.3 DATA     BIT       PT1
*SFR* 000000B8H.5 DATA     BIT       PT2
*SFR* 000000B8H   DATA     BIT       PX0
*SFR* 000000B8H.2 DATA     BIT       PX1
*SFR* 000000F8H.2 DATA     BIT       PX2
LX51 LINKER/LOCATER V4.66.41.0                                                        03/18/2016  11:02:42  PAGE 11


*SFR* 000000F8H.3 DATA     BIT       PXM
*SFR* 00000098H.2 DATA     BIT       RB8
*SFR* 000000C8H.2 DATA     BIT       RB8_1
*SFR* 00000098H.4 DATA     BIT       REN
*SFR* 000000C8H.4 DATA     BIT       REN_1
*SFR* 00000098H   DATA     BIT       RI
*SFR* 000000C8H   DATA     BIT       RI_1
*SFR* 000000D0H.3 DATA     BIT       RS0
*SFR* 000000D0H.4 DATA     BIT       RS1
*SFR* 00000099H   DATA     BYTE      SBUF
*SFR* 00000098H   DATA     BYTE      SCON
*SFR* 000000BFH   DATA     BYTE      SCU_PAGE
      01000799H   CODE     ---       sendHVRelayStatus
      01000688H   CODE     ---       sendUUID
      00000020H.3 BIT      BIT       shouldMonitorHVStatus
*SFR* 00000098H.7 DATA     BIT       SM0
*SFR* 000000C8H.7 DATA     BIT       SM0_1
*SFR* 00000098H.6 DATA     BIT       SM1
*SFR* 000000C8H.6 DATA     BIT       SM1_1
*SFR* 00000098H.5 DATA     BIT       SM2
*SFR* 000000C8H.5 DATA     BIT       SM2_1
*SFR* 00000081H   DATA     BYTE      SP
*SFR* 000000AFH   DATA     BYTE      SSC_BRH
*SFR* 000000AEH   DATA     BYTE      SSC_BRL
*SFR* 000000ABH   DATA     BYTE      SSC_CONH_O
*SFR* 000000ABH   DATA     BYTE      SSC_CONH_P
*SFR* 000000AAH   DATA     BYTE      SSC_CONL_O
*SFR* 000000AAH   DATA     BYTE      SSC_CONL_P
*SFR* 000000A9H   DATA     BYTE      SSC_PISEL
*SFR* 000000ADH   DATA     BYTE      SSC_RBL
*SFR* 000000ACH   DATA     BYTE      SSC_TBL
*SFR* 0000008FH   DATA     BYTE      SYSCON0
*SFR* 000000C3H   DATA     BYTE      T21_RC2H
*SFR* 000000C2H   DATA     BYTE      T21_RC2L
*SFR* 000000C2H   DATA     WORD      T21_RC2LH
*SFR* 000000C0H   DATA     BYTE      T21_T2CON
*SFR* 000000C5H   DATA     BYTE      T21_T2H
*SFR* 000000C4H   DATA     BYTE      T21_T2L
*SFR* 000000C4H   DATA     WORD      T21_T2LH
*SFR* 000000C1H   DATA     BYTE      T21_T2MOD
*SFR* 000000C3H   DATA     BYTE      T2_RC2H
*SFR* 000000C2H   DATA     BYTE      T2_RC2L
*SFR* 000000C2H   DATA     WORD      T2_RC2LH
*SFR* 000000C0H   DATA     BYTE      T2_T2CON
*SFR* 000000C5H   DATA     BYTE      T2_T2H
*SFR* 000000C4H   DATA     BYTE      T2_T2L
*SFR* 000000C4H   DATA     WORD      T2_T2LH
*SFR* 000000C1H   DATA     BYTE      T2_T2MOD
*SFR* 00000098H.3 DATA     BIT       TB8
*SFR* 000000C8H.3 DATA     BIT       TB8_1
*SFR* 00000088H   DATA     BYTE      TCON
*SFR* 00000088H.5 DATA     BIT       TF0
*SFR* 00000088H.7 DATA     BIT       TF1
*SFR* 000000C0H.7 DATA     BIT       TF2
*SFR* 0000008CH   DATA     BYTE      TH0
*SFR* 0000008DH   DATA     BYTE      TH1
*SFR* 00000098H.1 DATA     BIT       TI
*SFR* 000000C8H.1 DATA     BIT       TI_1
*SFR* 0000008AH   DATA     BYTE      TL0
*SFR* 0000008BH   DATA     BYTE      TL1
*SFR* 00000089H   DATA     BYTE      TMOD
*SFR* 00000088H.4 DATA     BIT       TR0
*SFR* 00000088H.6 DATA     BIT       TR1
*SFR* 000000C0H.2 DATA     BIT       TR2
*SFR* 000000CAH   DATA     BYTE      UART1_BCON
LX51 LINKER/LOCATER V4.66.41.0                                                        03/18/2016  11:02:42  PAGE 12


*SFR* 000000CBH   DATA     BYTE      UART1_BG
*SFR* 000000CCH   DATA     BYTE      UART1_FDCON
*SFR* 000000CEH   DATA     BYTE      UART1_FDRES
*SFR* 000000CDH   DATA     BYTE      UART1_FDSTEP
*SFR* 000000C9H   DATA     BYTE      UART1_SBUF
*SFR* 000000C8H   DATA     BYTE      UART1_SCON
      0100082FH   CODE     ---       UART_viIsr
      010007D5H   CODE     ---       UART_vInit
      0200F10DH   XDATA    ---       UUID
*SFR* 000000BBH   DATA     BYTE      WDTCON
*SFR* 000000BFH   DATA     BYTE      WDTH
*SFR* 000000BEH   DATA     BYTE      WDTL
*SFR* 000000BCH   DATA     BYTE      WDTREL
*SFR* 000000BDH   DATA     BYTE      WDTWINB
      000000E0H   IDATA    ---       WLBuf
*SFR* 000000B3H   DATA     BYTE      XADDRH



SYMBOL TABLE OF MODULE:  TestBoard (?C_STARTUP)

      VALUE       REP       CLASS    TYPE      SYMBOL NAME
      ====================================================
      ---         MODULE    ---      ---       ?C_STARTUP
      000000A2H   PUBLIC    DATA     BYTE      ?C?DPSEL
      01000000H   PUBLIC    CODE     NEAR LAB  ?C_STARTUP
      000000E0H   SFRSYM    DATA     BYTE      ACC
      000000F0H   SFRSYM    DATA     BYTE      B
      00000083H   SFRSYM    DATA     BYTE      DPH
      00000082H   SFRSYM    DATA     BYTE      DPL
      000000B6H   SFRSYM    DATA     BYTE      OSC_CON
      000000BBH   SFRSYM    DATA     BYTE      PASSWD
      000000B7H   SFRSYM    DATA     BYTE      PLL_CON
      000000BFH   SFRSYM    DATA     BYTE      SCU_PAGE
      00000081H   SFRSYM    DATA     BYTE      SP
      000000B3H   SFRSYM    DATA     BYTE      XADDRH
      00000000H   SYMBOL    NUMBER   ---       IBPSTACK
      00000100H   SYMBOL    NUMBER   ---       IBPSTACKTOP
      00000080H   SYMBOL    NUMBER   ---       IDATALEN
      01000448H   SYMBOL    CODE     NEAR LAB  IDATALOOP
      00000002H   SYMBOL    NUMBER   ---       NDIV_XC866
      00000009H   SYMBOL    NUMBER   ---       NDIV_XC88X
      00000000H   SYMBOL    NUMBER   ---       PBPSTACK
      00000100H   SYMBOL    NUMBER   ---       PBPSTACKTOP
      00000000H   SYMBOL    NUMBER   ---       PDATALEN
      0000F000H   SYMBOL    NUMBER   ---       PDATASTART
      000000F0H   SYMBOL    NUMBER   ---       PPAGE
      00000000H   SYMBOL    NUMBER   ---       PPAGEENABLE
      01000445H   SYMBOL    CODE     NEAR LAB  STARTUP1
      00000000H   SYMBOL    NUMBER   ---       XBPSTACK
      00010000H   SYMBOL    NUMBER   ---       XBPSTACKTOP
      00000000H   SYMBOL    NUMBER   ---       XC866_CHIP
      00000001H   SYMBOL    NUMBER   ---       XC88X_CHIP
      00000200H   SYMBOL    NUMBER   ---       XDATALEN
      01000453H   SYMBOL    CODE     NEAR LAB  XDATALOOP
      0000F000H   SYMBOL    NUMBER   ---       XDATASTART
      00000000H   SYMBOL    NUMBER   ---       XTAL

      01000000H   BLOCK     CODE     NEAR LAB  LVL=0
      01000000H   LINE      CODE     ---       #201
      ---         BLOCKEND  ---      ---       LVL=0

      01000445H   BLOCK     CODE     NEAR LAB  LVL=0
      01000445H   LINE      CODE     ---       #244
      01000447H   LINE      CODE     ---       #245
LX51 LINKER/LOCATER V4.66.41.0                                                        03/18/2016  11:02:42  PAGE 13


      01000448H   LINE      CODE     ---       #246
      01000449H   LINE      CODE     ---       #247
      0100044BH   LINE      CODE     ---       #251
      0100044EH   LINE      CODE     ---       #252
      01000450H   LINE      CODE     ---       #256
      01000452H   LINE      CODE     ---       #258
      01000453H   LINE      CODE     ---       #259
      01000454H   LINE      CODE     ---       #260
      01000455H   LINE      CODE     ---       #261
      01000457H   LINE      CODE     ---       #262
      01000459H   LINE      CODE     ---       #298
      0100045CH   LINE      CODE     ---       #300
      ---         BLOCKEND  ---      ---       LVL=0

      ---         MODULE    ---      ---       MAIN
      0200F10DH   PUBLIC    XDATA    ---       UUID
      00000020H.3 PUBLIC    BIT      BIT       shouldMonitorHVStatus
      010005E5H   PUBLIC    CODE     ---       main
      010007FBH   PUBLIC    CODE     ---       _delay
      010005C0H   PUBLIC    CODE     ---       MAIN_vInit
      000000A0H.5 SFRSYM    DATA     BIT       KEEPX
      000000B0H   SFRSYM    DATA     BYTE      P3_DATA
      000000FAH   SFRSYM    DATA     BYTE      CCU6_CC60RL
      000000DBH   SFRSYM    DATA     BYTE      CAN_DATA0
      000000A0H.6 SFRSYM    DATA     BIT       KEEPY
      000000C1H   SFRSYM    DATA     BYTE      T21_T2MOD
      000000C0H   SFRSYM    DATA     BYTE      T21_T2CON
      000000C8H   SFRSYM    DATA     BYTE      P4_DATA
      000000FCH   SFRSYM    DATA     BYTE      CCU6_CC61RL
      000000DCH   SFRSYM    DATA     BYTE      CAN_DATA1
      000000D3H   SFRSYM    DATA     BYTE      ADC_EVINPR
      000000A0H.7 SFRSYM    DATA     BIT       KEEPZ
      000000C9H   SFRSYM    DATA     BYTE      UART1_SBUF
      00000092H   SFRSYM    DATA     BYTE      P5_DATA
      000000FEH   SFRSYM    DATA     BYTE      CCU6_CC62RL
      000000DDH   SFRSYM    DATA     BYTE      CAN_DATA2
      000000DAH   SFRSYM    DATA     BYTE      CAN_ADH
      000000C4H   SFRSYM    DATA     WORD      T2_T2LH
      0000009AH   SFRSYM    DATA     BYTE      CCU6_CC63RL
      000000DEH   SFRSYM    DATA     BYTE      CAN_DATA3
      000000D2H   SFRSYM    DATA     BYTE      ADC_EVINSR
      000000D0H.6 SFRSYM    DATA     BIT       AC
      000000C8H   SFRSYM    DATA     BYTE      UART1_SCON
      000000D9H   SFRSYM    DATA     BYTE      CAN_ADL
      000000A8H.7 SFRSYM    DATA     BIT       EA
      000000CAH   SFRSYM    DATA     BYTE      ADC_CRCR1
      000000FDH   SFRSYM    DATA     BYTE      CCU6_MODCTRH
      000000B2H   SFRSYM    DATA     BYTE      MDU_MD0
      000000BEH   SFRSYM    DATA     BYTE      BG
      000000B3H   SFRSYM    DATA     BYTE      MDU_MD1
      000000BCH   SFRSYM    DATA     BYTE      NMISR
      000000B4H   SFRSYM    DATA     BYTE      MDU_MD2
      000000FCH   SFRSYM    DATA     BYTE      CCU6_MODCTRL
      000000A0H.1 SFRSYM    DATA     BIT       ERROR
      000000B5H   SFRSYM    DATA     BYTE      MDU_MD3
      000000B6H   SFRSYM    DATA     BYTE      MDU_MD4
      000000A8H   SFRSYM    DATA     BYTE      IEN0
      000000B3H   SFRSYM    DATA     BYTE      ID
      000000E8H   SFRSYM    DATA     BIT       EADC
      000000B7H   SFRSYM    DATA     BYTE      MDU_MD5
      000000E8H   SFRSYM    DATA     BYTE      IEN1
      000000A7H   SFRSYM    DATA     BYTE      CCU6_CMPMODIFH
      00000080H   SFRSYM    DATA     BIT       P0_0
      000000B1H   SFRSYM    DATA     BYTE      MDU_MDUCON
      000000CCH   SFRSYM    DATA     BYTE      ADC_CRMR1
LX51 LINKER/LOCATER V4.66.41.0                                                        03/18/2016  11:02:42  PAGE 14


      00000090H   SFRSYM    DATA     BIT       P1_0
      00000080H.1 SFRSYM    DATA     BIT       P0_1
      000000A3H   SFRSYM    DATA     BYTE      CCU6_PAGE
      000000A0H   SFRSYM    DATA     BIT       P2_0
      00000090H.1 SFRSYM    DATA     BIT       P1_1
      00000080H.2 SFRSYM    DATA     BIT       P0_2
      0000008FH   SFRSYM    DATA     BYTE      SYSCON0
      000000B7H   SFRSYM    DATA     BYTE      MODPISEL1
      000000A6H   SFRSYM    DATA     BYTE      CCU6_CMPMODIFL
      000000B0H   SFRSYM    DATA     BIT       P3_0
      000000A0H.1 SFRSYM    DATA     BIT       P2_1
      00000090H.2 SFRSYM    DATA     BIT       P1_2
      00000080H.3 SFRSYM    DATA     BIT       P0_3
      000000BAH   SFRSYM    DATA     BYTE      MODPISEL2
      000000F9H   SFRSYM    DATA     BYTE      IPH1
      0000009BH   SFRSYM    DATA     BYTE      CCU6_MCMOUTH
      000000CBH   SFRSYM    DATA     BYTE      ADC_CRPR1
      000000C8H   SFRSYM    DATA     BIT       P4_0
      000000B0H.1 SFRSYM    DATA     BIT       P3_1
      000000A0H.2 SFRSYM    DATA     BIT       P2_2
      00000090H.3 SFRSYM    DATA     BIT       P1_3
      00000080H.4 SFRSYM    DATA     BIT       P0_4
      000000A2H   SFRSYM    DATA     BYTE      EO
      000000C8H.1 SFRSYM    DATA     BIT       P4_1
      000000B0H.2 SFRSYM    DATA     BIT       P3_2
      000000A0H.3 SFRSYM    DATA     BIT       P2_3
      00000090H.4 SFRSYM    DATA     BIT       P1_4
      00000080H.5 SFRSYM    DATA     BIT       P0_5
      000000BDH   SFRSYM    DATA     BYTE      FEAH
      000000D2H   SFRSYM    DATA     BYTE      ADC_QINR0
      000000D2H   SFRSYM    DATA     BYTE      ADC_QBUR0
      000000C8H.2 SFRSYM    DATA     BIT       P4_2
      000000B0H.3 SFRSYM    DATA     BIT       P3_3
      000000A0H.4 SFRSYM    DATA     BIT       P2_4
      00000090H.5 SFRSYM    DATA     BIT       P1_5
      00000080H.6 SFRSYM    DATA     BIT       P0_6
      000000C0H.6 SFRSYM    DATA     BIT       EXF2
      000000E8H.4 SFRSYM    DATA     BIT       ECCIP0
      0000009DH   SFRSYM    DATA     BYTE      CCU6_T12PRH
      000000C8H.3 SFRSYM    DATA     BIT       P4_3
      000000B0H.4 SFRSYM    DATA     BIT       P3_4
      000000A0H.5 SFRSYM    DATA     BIT       P2_5
      00000090H.6 SFRSYM    DATA     BIT       P1_6
      00000080H.7 SFRSYM    DATA     BIT       P0_7
      000000E8H.5 SFRSYM    DATA     BIT       ECCIP1
      000000B2H   SFRSYM    DATA     BYTE      MDU_MR0
      0000009FH   SFRSYM    DATA     BYTE      CCU6_T13PRH
      0000009AH   SFRSYM    DATA     BYTE      CCU6_MCMOUTL
      000000C8H.4 SFRSYM    DATA     BIT       P4_4
      000000B0H.5 SFRSYM    DATA     BIT       P3_5
      000000A0H.6 SFRSYM    DATA     BIT       P2_6
      00000090H.7 SFRSYM    DATA     BIT       P1_7
      000000E8H.6 SFRSYM    DATA     BIT       ECCIP2
      000000A8H.4 SFRSYM    DATA     BIT       ES
      000000CDH   SFRSYM    DATA     BYTE      UART1_FDSTEP
      000000B3H   SFRSYM    DATA     BYTE      MDU_MR1
      0000009DH   SFRSYM    DATA     BYTE      CCU6_IENH
      000000C8H.5 SFRSYM    DATA     BIT       P4_5
      000000B0H.6 SFRSYM    DATA     BIT       P3_6
      000000A0H.7 SFRSYM    DATA     BIT       P2_7
      000000F8H   SFRSYM    DATA     BIT       PADC
      000000E8H.7 SFRSYM    DATA     BIT       ECCIP3
      000000B4H   SFRSYM    DATA     BYTE      MDU_MR2
      000000B8H   SFRSYM    DATA     BYTE      IP
      000000BCH   SFRSYM    DATA     BYTE      FEAL
LX51 LINKER/LOCATER V4.66.41.0                                                        03/18/2016  11:02:42  PAGE 15


      000000C8H.6 SFRSYM    DATA     BIT       P4_6
      000000B0H.7 SFRSYM    DATA     BIT       P3_7
      000000B5H   SFRSYM    DATA     BYTE      MDU_MR3
      0000009CH   SFRSYM    DATA     BYTE      CCU6_T12PRL
      000000D8H   SFRSYM    DATA     BYTE      CAN_ADCON
      000000C8H.7 SFRSYM    DATA     BIT       P4_7
      000000FAH   SFRSYM    DATA     WORD      CCU6_CC60SRLH
      00000098H   SFRSYM    DATA     BIT       RI
      000000B6H   SFRSYM    DATA     BYTE      MDU_MR4
      0000009EH   SFRSYM    DATA     BYTE      CCU6_T13PRL
      000000FCH   SFRSYM    DATA     WORD      CCU6_CC61SRLH
      000000D0H.7 SFRSYM    DATA     BIT       CY
      000000B7H   SFRSYM    DATA     BYTE      MDU_MR5
      0000009CH   SFRSYM    DATA     BYTE      CCU6_IENL
      000000FEH   SFRSYM    DATA     WORD      CCU6_CC62SRLH
      00000098H.1 SFRSYM    DATA     BIT       TI
      000000FFH   SFRSYM    DATA     BYTE      CCU6_TRPCTRH
      0000009AH   SFRSYM    DATA     WORD      CCU6_CC63SRLH
      000000F8H.4 SFRSYM    DATA     BIT       PCCIP0
      000000FEH   SFRSYM    DATA     BYTE      CCU6_TRPCTRL
      000000CBH   SFRSYM    DATA     BYTE      ADC_RESRA0H
      000000F8H.5 SFRSYM    DATA     BIT       PCCIP1
      000000BDH   SFRSYM    DATA     BYTE      WDTWINB
      000000CDH   SFRSYM    DATA     BYTE      ADC_RESRA1H
      000000B8H.4 SFRSYM    DATA     BIT       PS
      000000F8H.6 SFRSYM    DATA     BIT       PCCIP2
      000000A0H.4 SFRSYM    DATA     BIT       DMAP
      000000ABH   SFRSYM    DATA     BYTE      SSC_CONH_O
      00000081H   SFRSYM    DATA     BYTE      SP
      0000009FH   SFRSYM    DATA     BYTE      CCU6_INPH
      000000BDH   SFRSYM    DATA     BYTE      BCON
      000000CFH   SFRSYM    DATA     BYTE      ADC_RESRA2H
      000000F8H.7 SFRSYM    DATA     BIT       PCCIP3
      000000ABH   SFRSYM    DATA     BYTE      SSC_CONH_P
      000000A4H   SFRSYM    DATA     BYTE      CCU6_PISEL2
      000000D3H   SFRSYM    DATA     BYTE      ADC_RESRA3H
      000000D0H.2 SFRSYM    DATA     BIT       OV
      000000CAH   SFRSYM    DATA     BYTE      ADC_RESRA0L
      0000009BH   SFRSYM    DATA     BYTE      CCU6_T12MSELH
      000000CCH   SFRSYM    DATA     BYTE      ADC_RESRA1L
      000000AAH   SFRSYM    DATA     BYTE      SSC_CONL_O
      000000AFH   SFRSYM    DATA     BYTE      SSC_BRH
      000000B6H   SFRSYM    DATA     BYTE      OSC_CON
      0000009EH   SFRSYM    DATA     BYTE      CCU6_INPL
      000000CEH   SFRSYM    DATA     BYTE      ADC_RESRA2L
      000000C3H   SFRSYM    DATA     BYTE      T21_RC2H
      000000AAH   SFRSYM    DATA     BYTE      SSC_CONL_P
      000000D2H   SFRSYM    DATA     BYTE      ADC_RESRA3L
      000000C0H.1 SFRSYM    DATA     BIT       C_T2
      000000B7H   SFRSYM    DATA     BYTE      PLL_CON
      000000A7H   SFRSYM    DATA     BYTE      CCU6_TCTR0H
      0000009AH   SFRSYM    DATA     BYTE      CCU6_T12MSELL
      000000A5H   SFRSYM    DATA     BYTE      CCU6_ISRH
      000000ADH   SFRSYM    DATA     BYTE      SSC_RBL
      000000AEH   SFRSYM    DATA     BYTE      SSC_BRL
      000000A5H   SFRSYM    DATA     BYTE      CCU6_ISSH
      000000CFH   SFRSYM    DATA     BYTE      ADC_ETRCR
      000000CAH   SFRSYM    DATA     WORD      ADC_RESR0LH
      000000C8H   SFRSYM    DATA     BIT       RI_1
      000000C2H   SFRSYM    DATA     BYTE      T21_RC2L
      000000FBH   SFRSYM    DATA     BYTE      CCU6_TCTR2H
      000000CCH   SFRSYM    DATA     WORD      ADC_RESR1LH
      000000ACH   SFRSYM    DATA     BYTE      SSC_TBL
      000000B4H   SFRSYM    DATA     BYTE      IRCON0
      000000CFH   SFRSYM    DATA     BYTE      ADC_Q0R0
LX51 LINKER/LOCATER V4.66.41.0                                                        03/18/2016  11:02:42  PAGE 16


      000000CEH   SFRSYM    DATA     WORD      ADC_RESR2LH
      000000C8H.1 SFRSYM    DATA     BIT       TI_1
      000000BDH   SFRSYM    DATA     BYTE      MODSUSP
      000000B5H   SFRSYM    DATA     BYTE      IRCON1
      0000009DH   SFRSYM    DATA     BYTE      CCU6_TCTR4H
      000000A6H   SFRSYM    DATA     BYTE      CCU6_TCTR0L
      000000A4H   SFRSYM    DATA     BYTE      CCU6_ISRL
      000000D2H   SFRSYM    DATA     WORD      ADC_RESR3LH
      000000E8H.1 SFRSYM    DATA     BIT       ESSC
      000000B4H   SFRSYM    DATA     BYTE      PMCON0
      000000B6H   SFRSYM    DATA     BYTE      IRCON2
      000000A4H   SFRSYM    DATA     BYTE      CCU6_ISSL
      000000DBH   SFRSYM    DATA     WORD      CAN_DATA01
      000000B5H   SFRSYM    DATA     BYTE      PMCON1
      00000080H   SFRSYM    DATA     BYTE      P0_PUDSEL
      000000F1H   SFRSYM    DATA     BYTE      MMCR
      000000B4H   SFRSYM    DATA     BYTE      IRCON3
      000000FAH   SFRSYM    DATA     BYTE      CCU6_TCTR2L
      00000099H   SFRSYM    DATA     BYTE      SBUF
      000000BBH   SFRSYM    DATA     BYTE      PMCON2
      00000087H   SFRSYM    DATA     BYTE      PCON
      00000090H   SFRSYM    DATA     BYTE      P1_PUDSEL
      000000F5H   SFRSYM    DATA     BYTE      MMDR
      000000B5H   SFRSYM    DATA     BYTE      IRCON4
      000000A0H   SFRSYM    DATA     BYTE      P2_PUDSEL
      0000009BH   SFRSYM    DATA     BYTE      CD_CORDXH
      0000009CH   SFRSYM    DATA     BYTE      CCU6_TCTR4L
      000000C4H   SFRSYM    DATA     WORD      T21_T2LH
      000000B0H.1 SFRSYM    DATA     BIT       IERR
      000000B0H   SFRSYM    DATA     BYTE      P3_PUDSEL
      0000009DH   SFRSYM    DATA     BYTE      CD_CORDYH
      000000DDH   SFRSYM    DATA     WORD      CAN_DATA23
      00000098H   SFRSYM    DATA     BYTE      SCON
      000000C8H   SFRSYM    DATA     BYTE      P4_PUDSEL
      0000009FH   SFRSYM    DATA     BYTE      CD_CORDZH
      00000089H   SFRSYM    DATA     BYTE      TMOD
      00000088H   SFRSYM    DATA     BYTE      TCON
      000000C5H   SFRSYM    DATA     BYTE      T2_T2H
      00000092H   SFRSYM    DATA     BYTE      P5_PUDSEL
      000000A6H   SFRSYM    DATA     BYTE      CCU6_PSLR
      000000B0H.2 SFRSYM    DATA     BIT       MDU_BSY
      0000009AH   SFRSYM    DATA     BYTE      CD_CORDXL
      0000009CH   SFRSYM    DATA     BYTE      CD_CORDYL
      000000BFH   SFRSYM    DATA     BYTE      WDTH
      0000009EH   SFRSYM    DATA     BYTE      CD_CORDZL
      000000B0H   SFRSYM    DATA     BIT       IRDY
      000000C4H   SFRSYM    DATA     BYTE      T2_T2L
      000000CAH   SFRSYM    DATA     BYTE      ADC_GLOBCTR
      000000F8H.1 SFRSYM    DATA     BIT       PSSC
      000000CCH   SFRSYM    DATA     BYTE      UART1_FDCON
      000000A7H   SFRSYM    DATA     BYTE      CCU6_MCMCTR
      000000BEH   SFRSYM    DATA     BYTE      WDTL
      000000B3H   SFRSYM    DATA     BYTE      XADDRH
      00000088H.1 SFRSYM    DATA     BIT       IE0
      000000FAH   SFRSYM    DATA     WORD      CCU6_T12LH
      00000088H.3 SFRSYM    DATA     BIT       IE1
      000000FCH   SFRSYM    DATA     WORD      CCU6_T13LH
      00000086H   SFRSYM    DATA     BYTE      P0_DIR
      000000F2H   SFRSYM    DATA     BYTE      MMSR
      00000091H   SFRSYM    DATA     BYTE      P1_DIR
      000000F0H   SFRSYM    DATA     BYTE      B
      000000CAH   SFRSYM    DATA     BYTE      ADC_RCR0
      000000A1H   SFRSYM    DATA     BYTE      P2_DIR
      000000CBH   SFRSYM    DATA     BYTE      ADC_RCR1
      000000C2H   SFRSYM    DATA     WORD      T2_RC2LH
LX51 LINKER/LOCATER V4.66.41.0                                                        03/18/2016  11:02:42  PAGE 17


      000000B1H   SFRSYM    DATA     BYTE      P3_DIR
      000000F3H   SFRSYM    DATA     BYTE      MMBPCR
      000000CCH   SFRSYM    DATA     BYTE      ADC_RCR2
      000000C0H   SFRSYM    DATA     BIT       CP_RL2
      000000C9H   SFRSYM    DATA     BYTE      P4_DIR
      000000CDH   SFRSYM    DATA     BYTE      ADC_RCR3
      000000CEH   SFRSYM    DATA     BYTE      UART1_FDRES
      000000B2H   SFRSYM    DATA     BYTE      PORT_PAGE
      00000093H   SFRSYM    DATA     BYTE      P5_DIR
      000000BBH   SFRSYM    DATA     BYTE      NMICON
      000000FAH   SFRSYM    DATA     WORD      CCU6_CC60RLH
      000000D1H   SFRSYM    DATA     BYTE      ADC_PAGE
      000000E0H   SFRSYM    DATA     BYTE      ACC
      000000FCH   SFRSYM    DATA     WORD      CCU6_CC61RLH
      000000EAH   SFRSYM    DATA     BYTE      FDSTEP
      000000A1H   SFRSYM    DATA     BYTE      CD_CON
      000000FEH   SFRSYM    DATA     WORD      CCU6_CC62RLH
      000000A8H.1 SFRSYM    DATA     BIT       ET0
      000000A9H   SFRSYM    DATA     BYTE      SSC_PISEL
      000000F7H   SFRSYM    DATA     BYTE      HWBPDR
      000000CBH   SFRSYM    DATA     BYTE      ADC_GLOBSTR
      0000009AH   SFRSYM    DATA     WORD      CCU6_CC63RLH
      00000088H.5 SFRSYM    DATA     BIT       TF0
      000000A8H.3 SFRSYM    DATA     BIT       ET1
      000000F8H   SFRSYM    DATA     BYTE      IP1
      000000CDH   SFRSYM    DATA     BYTE      ADC_QMR0
      00000088H.7 SFRSYM    DATA     BIT       TF1
      000000A8H.5 SFRSYM    DATA     BIT       ET2
      000000C0H.7 SFRSYM    DATA     BIT       TF2
      00000098H.2 SFRSYM    DATA     BIT       RB8
      0000008CH   SFRSYM    DATA     BYTE      TH0
      000000D9H   SFRSYM    DATA     WORD      CAN_ADLH
      00000088H   SFRSYM    DATA     BIT       IT0
      000000A8H   SFRSYM    DATA     BIT       EX0
      0000008DH   SFRSYM    DATA     BYTE      TH1
      000000CDH   SFRSYM    DATA     BYTE      ADC_LCBR
      00000088H.2 SFRSYM    DATA     BIT       IT1
      00000098H.3 SFRSYM    DATA     BIT       TB8
      000000A8H.2 SFRSYM    DATA     BIT       EX1
      000000C1H   SFRSYM    DATA     BYTE      T2_T2MOD
      000000C0H   SFRSYM    DATA     BYTE      T2_T2CON
      000000FBH   SFRSYM    DATA     BYTE      CCU6_CC60SRH
      000000D0H   SFRSYM    DATA     BIT       P
      000000E8H.2 SFRSYM    DATA     BIT       EX2
      000000A5H   SFRSYM    DATA     BYTE      CCU6_T12DTCH
      000000FDH   SFRSYM    DATA     BYTE      CCU6_CC61SRH
      000000CAH   SFRSYM    DATA     BYTE      ADC_CHCTR0
      00000098H.7 SFRSYM    DATA     BIT       SM0
      0000008AH   SFRSYM    DATA     BYTE      TL0
      000000FFH   SFRSYM    DATA     BYTE      CCU6_CC62SRH
      000000CEH   SFRSYM    DATA     BYTE      ADC_QSR0
      000000CBH   SFRSYM    DATA     BYTE      ADC_CHCTR1
      00000098H.6 SFRSYM    DATA     BIT       SM1
      000000BBH   SFRSYM    DATA     BYTE      WDTCON
      0000008BH   SFRSYM    DATA     BYTE      TL1
      0000009BH   SFRSYM    DATA     BYTE      CCU6_CC63SRH
      000000CCH   SFRSYM    DATA     BYTE      ADC_CHCTR2
      00000098H.5 SFRSYM    DATA     BIT       SM2
      000000FAH   SFRSYM    DATA     BYTE      CCU6_CC60SRL
      000000CDH   SFRSYM    DATA     BYTE      ADC_CHCTR3
      000000A4H   SFRSYM    DATA     BYTE      CCU6_T12DTCL
      000000FCH   SFRSYM    DATA     BYTE      CCU6_CC61SRL
      000000CEH   SFRSYM    DATA     BYTE      ADC_CHCTR4
      000000B8H.1 SFRSYM    DATA     BIT       PT0
      000000BCH   SFRSYM    DATA     BYTE      WDTREL
LX51 LINKER/LOCATER V4.66.41.0                                                        03/18/2016  11:02:42  PAGE 18


      000000BBH   SFRSYM    DATA     BYTE      PASSWD
      000000FEH   SFRSYM    DATA     BYTE      CCU6_CC62SRL
      000000CFH   SFRSYM    DATA     BYTE      ADC_CHCTR5
      000000D0H.3 SFRSYM    DATA     BIT       RS0
      000000B8H.3 SFRSYM    DATA     BIT       PT1
      0000009AH   SFRSYM    DATA     BYTE      CCU6_CC63SRL
      000000D2H   SFRSYM    DATA     BYTE      ADC_CHCTR6
      00000088H.4 SFRSYM    DATA     BIT       TR0
      000000D0H.4 SFRSYM    DATA     BIT       RS1
      000000B8H.5 SFRSYM    DATA     BIT       PT2
      000000A0H   SFRSYM    DATA     BIT       CD_BSY
      000000D3H   SFRSYM    DATA     BYTE      ADC_CHCTR7
      00000088H.6 SFRSYM    DATA     BIT       TR1
      000000A0H.2 SFRSYM    DATA     BIT       EOC
      0000009DH   SFRSYM    DATA     BYTE      CCU6_ISH
      000000CEH   SFRSYM    DATA     BYTE      ADC_INPCR0
      000000C0H.2 SFRSYM    DATA     BIT       TR2
      000000B8H   SFRSYM    DATA     BIT       PX0
      000000CBH   SFRSYM    DATA     BYTE      UART1_BG
      00000080H   SFRSYM    DATA     BYTE      P0_ALTSEL0
      000000F6H   SFRSYM    DATA     BYTE      HWBPSR
      000000B8H.2 SFRSYM    DATA     BIT       PX1
      00000090H   SFRSYM    DATA     BYTE      P1_ALTSEL0
      00000086H   SFRSYM    DATA     BYTE      P0_ALTSEL1
      000000F8H.2 SFRSYM    DATA     BIT       PX2
      00000091H   SFRSYM    DATA     BYTE      P1_ALTSEL1
      000000FFH   SFRSYM    DATA     BYTE      CCU6_CMPSTATH
      000000B0H   SFRSYM    DATA     BYTE      P3_ALTSEL0
      0000009CH   SFRSYM    DATA     BYTE      CCU6_ISL
      000000CEH   SFRSYM    DATA     BYTE      ADC_VFCR
      000000C8H   SFRSYM    DATA     BYTE      P4_ALTSEL0
      000000B1H   SFRSYM    DATA     BYTE      P3_ALTSEL1
      00000083H   SFRSYM    DATA     BYTE      DPH
      000000C8H.2 SFRSYM    DATA     BIT       RB8_1
      00000092H   SFRSYM    DATA     BYTE      P5_ALTSEL0
      000000C9H   SFRSYM    DATA     BYTE      P4_ALTSEL1
      00000093H   SFRSYM    DATA     BYTE      P5_ALTSEL1
      00000086H   SFRSYM    DATA     BYTE      P0_PUDEN
      000000FEH   SFRSYM    DATA     BYTE      CCU6_CMPSTATL
      000000C8H.3 SFRSYM    DATA     BIT       TB8_1
      000000A0H.3 SFRSYM    DATA     BIT       INT_EN
      00000091H   SFRSYM    DATA     BYTE      P1_PUDEN
      000000CBH   SFRSYM    DATA     BYTE      ADC_RESR0H
      000000CCH   SFRSYM    DATA     BYTE      ADC_PRAR
      000000A1H   SFRSYM    DATA     BYTE      P2_PUDEN
      000000B3H   SFRSYM    DATA     BYTE      MODPISEL
      00000082H   SFRSYM    DATA     BYTE      DPL
      000000CDH   SFRSYM    DATA     BYTE      ADC_RESR1H
      000000C8H.7 SFRSYM    DATA     BIT       SM0_1
      000000B1H   SFRSYM    DATA     BYTE      P3_PUDEN
      000000B9H   SFRSYM    DATA     BYTE      IPH
      000000CFH   SFRSYM    DATA     BYTE      ADC_RESR2H
      0000009CH   SFRSYM    DATA     WORD      CCU6_T12PRLH
      000000C8H.6 SFRSYM    DATA     BIT       SM1_1
      000000C9H   SFRSYM    DATA     BYTE      P4_PUDEN
      000000E9H   SFRSYM    DATA     BYTE      MMCR2
      000000D3H   SFRSYM    DATA     BYTE      ADC_RESR3H
      000000CBH   SFRSYM    DATA     BYTE      ADC_CHINCR
      0000009EH   SFRSYM    DATA     WORD      CCU6_T13PRLH
      000000C8H.5 SFRSYM    DATA     BIT       SM2_1
      000000C0H.3 SFRSYM    DATA     BIT       EXEN2
      00000093H   SFRSYM    DATA     BYTE      P5_PUDEN
      000000CAH   SFRSYM    DATA     BYTE      ADC_RESR0L
      000000CCH   SFRSYM    DATA     BYTE      ADC_RESR1L
      00000098H.4 SFRSYM    DATA     BIT       REN
LX51 LINKER/LOCATER V4.66.41.0                                                        03/18/2016  11:02:42  PAGE 19


      000000CEH   SFRSYM    DATA     BYTE      ADC_RESR2L
      000000CAH   SFRSYM    DATA     BYTE      ADC_CHINFR
      000000C5H   SFRSYM    DATA     BYTE      T21_T2H
      0000009FH   SFRSYM    DATA     BYTE      CCU6_MCMOUTSH
      000000D2H   SFRSYM    DATA     BYTE      ADC_RESR3L
      000000A0H   SFRSYM    DATA     BYTE      CD_STATC
      000000E8H.3 SFRSYM    DATA     BIT       EXM
      000000C4H   SFRSYM    DATA     BYTE      T21_T2L
      000000BFH   SFRSYM    DATA     BYTE      SCU_PAGE
      0000009FH   SFRSYM    DATA     BYTE      CCU6_PISEL0H
      0000009EH   SFRSYM    DATA     BYTE      CCU6_MCMOUTSL
      000000E9H   SFRSYM    DATA     BYTE      FDCON
      000000B0H   SFRSYM    DATA     BYTE      MDU_MDUSTAT
      000000CAH   SFRSYM    DATA     WORD      ADC_RESRA0LH
      000000CCH   SFRSYM    DATA     WORD      ADC_RESRA1LH
      000000E9H   SFRSYM    DATA     BYTE      MISC_CON
      0000009EH   SFRSYM    DATA     BYTE      CCU6_PISEL0L
      000000CEH   SFRSYM    DATA     WORD      ADC_RESRA2LH
      000000CDH   SFRSYM    DATA     BYTE      ADC_CHINPR
      000000D2H   SFRSYM    DATA     WORD      ADC_RESRA3LH
      000000BAH   SFRSYM    DATA     BYTE      CMCON
      000000CAH   SFRSYM    DATA     BYTE      UART1_BCON
      000000FBH   SFRSYM    DATA     BYTE      CCU6_T12H
      000000CFH   SFRSYM    DATA     BYTE      ADC_EVINCR
      000000CCH   SFRSYM    DATA     BYTE      ADC_CHINSR
      00000080H   SFRSYM    DATA     BYTE      P0_OD
      000000BEH   SFRSYM    DATA     BYTE      COCON
      000000FDH   SFRSYM    DATA     BYTE      CCU6_T13H
      000000C2H   SFRSYM    DATA     WORD      T21_RC2LH
      00000090H   SFRSYM    DATA     BYTE      P1_OD
      000000D0H.5 SFRSYM    DATA     BIT       F0
      000000F8H.3 SFRSYM    DATA     BIT       PXM
      000000EBH   SFRSYM    DATA     BYTE      MMWR1
      000000EBH   SFRSYM    DATA     BYTE      FDRES
      000000CEH   SFRSYM    DATA     BYTE      ADC_EVINFR
      000000C8H.4 SFRSYM    DATA     BIT       REN_1
      000000D0H.1 SFRSYM    DATA     BIT       F1
      000000C3H   SFRSYM    DATA     BYTE      T2_RC2H
      000000B0H   SFRSYM    DATA     BYTE      P3_OD
      000000ECH   SFRSYM    DATA     BYTE      MMWR2
      000000FAH   SFRSYM    DATA     BYTE      CCU6_T12L
      000000C8H   SFRSYM    DATA     BYTE      P4_OD
      000000FCH   SFRSYM    DATA     BYTE      CCU6_T13L
      00000092H   SFRSYM    DATA     BYTE      P5_OD
      000000B7H   SFRSYM    DATA     BYTE      EXICON0
      000000F4H   SFRSYM    DATA     BYTE      MMICR
      000000BAH   SFRSYM    DATA     BYTE      EXICON1
      000000C2H   SFRSYM    DATA     BYTE      T2_RC2L
      000000D0H   SFRSYM    DATA     BYTE      PSW
      000000FBH   SFRSYM    DATA     BYTE      CCU6_CC60RH
      00000080H   SFRSYM    DATA     BYTE      P0_DATA
      000000FDH   SFRSYM    DATA     BYTE      CCU6_CC61RH
      00000090H   SFRSYM    DATA     BYTE      P1_DATA
      000000FFH   SFRSYM    DATA     BYTE      CCU6_CC62RH
      000000A0H   SFRSYM    DATA     BYTE      P2_DATA
      0000009BH   SFRSYM    DATA     BYTE      CCU6_CC63RH

      010005C0H   BLOCK     CODE     ---       LVL=0
      010005C0H   LINE      ---      ---       #30
      010005C0H   LINE      ---      ---       #31
      010005C0H   LINE      ---      ---       #40
      010005C3H   LINE      ---      ---       #41
      010005C6H   LINE      ---      ---       #42
      010005C9H   LINE      ---      ---       #51
      010005CBH   LINE      ---      ---       #54
LX51 LINKER/LOCATER V4.66.41.0                                                        03/18/2016  11:02:42  PAGE 20


      010005CDH   LINE      ---      ---       #58
      010005D0H   LINE      ---      ---       #59
      010005D2H   LINE      ---      ---       #60
      010005D4H   LINE      ---      ---       #61
      010005D6H   LINE      ---      ---       #67
      010005D8H   LINE      ---      ---       #69
      ---         BLOCKEND  ---      ---       LVL=0

      010007FBH   BLOCK     CODE     ---       LVL=0
      010007FBH   LINE      ---      ---       #70
      00000006H   SYMBOL    DATA     INT       second
      010007FBH   BLOCK     CODE     NEAR LAB  LVL=1
      010007FBH   LINE      ---      ---       #72
      0100080BH   LINE      ---      ---       #73
      0100080EH   LINE      ---      ---       #74
      01000811H   LINE      ---      ---       #75
      0100081CH   LINE      ---      ---       #76
      01000827H   LINE      ---      ---       #77
      0100082EH   LINE      ---      ---       #78
      00000004H   SYMBOL    DATA     INT       i
      00000002H   SYMBOL    DATA     INT       j
      00000082H   SYMBOL    DATA     INT       k
      ---         BLOCKEND  CODE     ---       LVL=1
      ---         BLOCKEND  CODE     ---       LVL=0

      010005E5H   BLOCK     CODE     ---       LVL=0
      010005E5H   LINE      ---      ---       #79
      010005E5H   LINE      ---      ---       #80
      010005E5H   LINE      ---      ---       #81
      010005E7H   LINE      ---      ---       #83
      010005E7H   LINE      ---      ---       #85
      010005EEH   LINE      ---      ---       #86
      010005F6H   LINE      ---      ---       #87
      010005F6H   LINE      ---      ---       #89
      010005FCH   LINE      ---      ---       #90
      ---         BLOCKEND  ---      ---       LVL=0

      ---         MODULE    ---      ---       UART
      0100082FH   PUBLIC    CODE     ---       UART_viIsr
      010006A3H   PUBLIC    CODE     ---       _processCommand
      01000604H   PUBLIC    CODE     ---       _sendUART
      010007D5H   PUBLIC    CODE     ---       UART_vInit
      000000A0H.5 SFRSYM    DATA     BIT       KEEPX
      000000B0H   SFRSYM    DATA     BYTE      P3_DATA
      000000FAH   SFRSYM    DATA     BYTE      CCU6_CC60RL
      000000DBH   SFRSYM    DATA     BYTE      CAN_DATA0
      000000A0H.6 SFRSYM    DATA     BIT       KEEPY
      000000C1H   SFRSYM    DATA     BYTE      T21_T2MOD
      000000C0H   SFRSYM    DATA     BYTE      T21_T2CON
      000000C8H   SFRSYM    DATA     BYTE      P4_DATA
      000000FCH   SFRSYM    DATA     BYTE      CCU6_CC61RL
      000000DCH   SFRSYM    DATA     BYTE      CAN_DATA1
      000000D3H   SFRSYM    DATA     BYTE      ADC_EVINPR
      000000A0H.7 SFRSYM    DATA     BIT       KEEPZ
      000000C9H   SFRSYM    DATA     BYTE      UART1_SBUF
      00000092H   SFRSYM    DATA     BYTE      P5_DATA
      000000FEH   SFRSYM    DATA     BYTE      CCU6_CC62RL
      000000DDH   SFRSYM    DATA     BYTE      CAN_DATA2
      000000DAH   SFRSYM    DATA     BYTE      CAN_ADH
      000000C4H   SFRSYM    DATA     WORD      T2_T2LH
      0000009AH   SFRSYM    DATA     BYTE      CCU6_CC63RL
      000000DEH   SFRSYM    DATA     BYTE      CAN_DATA3
      000000D2H   SFRSYM    DATA     BYTE      ADC_EVINSR
      000000D0H.6 SFRSYM    DATA     BIT       AC
      000000C8H   SFRSYM    DATA     BYTE      UART1_SCON
LX51 LINKER/LOCATER V4.66.41.0                                                        03/18/2016  11:02:42  PAGE 21


      000000D9H   SFRSYM    DATA     BYTE      CAN_ADL
      000000A8H.7 SFRSYM    DATA     BIT       EA
      000000CAH   SFRSYM    DATA     BYTE      ADC_CRCR1
      000000FDH   SFRSYM    DATA     BYTE      CCU6_MODCTRH
      000000B2H   SFRSYM    DATA     BYTE      MDU_MD0
      000000BEH   SFRSYM    DATA     BYTE      BG
      000000B3H   SFRSYM    DATA     BYTE      MDU_MD1
      000000BCH   SFRSYM    DATA     BYTE      NMISR
      000000B4H   SFRSYM    DATA     BYTE      MDU_MD2
      000000FCH   SFRSYM    DATA     BYTE      CCU6_MODCTRL
      000000A0H.1 SFRSYM    DATA     BIT       ERROR
      000000B5H   SFRSYM    DATA     BYTE      MDU_MD3
      000000B6H   SFRSYM    DATA     BYTE      MDU_MD4
      000000A8H   SFRSYM    DATA     BYTE      IEN0
      000000B3H   SFRSYM    DATA     BYTE      ID
      000000E8H   SFRSYM    DATA     BIT       EADC
      000000B7H   SFRSYM    DATA     BYTE      MDU_MD5
      000000E8H   SFRSYM    DATA     BYTE      IEN1
      000000A7H   SFRSYM    DATA     BYTE      CCU6_CMPMODIFH
      00000080H   SFRSYM    DATA     BIT       P0_0
      000000B1H   SFRSYM    DATA     BYTE      MDU_MDUCON
      000000CCH   SFRSYM    DATA     BYTE      ADC_CRMR1
      00000090H   SFRSYM    DATA     BIT       P1_0
      00000080H.1 SFRSYM    DATA     BIT       P0_1
      000000A3H   SFRSYM    DATA     BYTE      CCU6_PAGE
      000000A0H   SFRSYM    DATA     BIT       P2_0
      00000090H.1 SFRSYM    DATA     BIT       P1_1
      00000080H.2 SFRSYM    DATA     BIT       P0_2
      0000008FH   SFRSYM    DATA     BYTE      SYSCON0
      000000B7H   SFRSYM    DATA     BYTE      MODPISEL1
      000000A6H   SFRSYM    DATA     BYTE      CCU6_CMPMODIFL
      000000B0H   SFRSYM    DATA     BIT       P3_0
      000000A0H.1 SFRSYM    DATA     BIT       P2_1
      00000090H.2 SFRSYM    DATA     BIT       P1_2
      00000080H.3 SFRSYM    DATA     BIT       P0_3
      000000BAH   SFRSYM    DATA     BYTE      MODPISEL2
      000000F9H   SFRSYM    DATA     BYTE      IPH1
      0000009BH   SFRSYM    DATA     BYTE      CCU6_MCMOUTH
      000000CBH   SFRSYM    DATA     BYTE      ADC_CRPR1
      000000C8H   SFRSYM    DATA     BIT       P4_0
      000000B0H.1 SFRSYM    DATA     BIT       P3_1
      000000A0H.2 SFRSYM    DATA     BIT       P2_2
      00000090H.3 SFRSYM    DATA     BIT       P1_3
      00000080H.4 SFRSYM    DATA     BIT       P0_4
      000000A2H   SFRSYM    DATA     BYTE      EO
      000000C8H.1 SFRSYM    DATA     BIT       P4_1
      000000B0H.2 SFRSYM    DATA     BIT       P3_2
      000000A0H.3 SFRSYM    DATA     BIT       P2_3
      00000090H.4 SFRSYM    DATA     BIT       P1_4
      00000080H.5 SFRSYM    DATA     BIT       P0_5
      000000BDH   SFRSYM    DATA     BYTE      FEAH
      000000D2H   SFRSYM    DATA     BYTE      ADC_QINR0
      000000D2H   SFRSYM    DATA     BYTE      ADC_QBUR0
      000000C8H.2 SFRSYM    DATA     BIT       P4_2
      000000B0H.3 SFRSYM    DATA     BIT       P3_3
      000000A0H.4 SFRSYM    DATA     BIT       P2_4
      00000090H.5 SFRSYM    DATA     BIT       P1_5
      00000080H.6 SFRSYM    DATA     BIT       P0_6
      000000C0H.6 SFRSYM    DATA     BIT       EXF2
      000000E8H.4 SFRSYM    DATA     BIT       ECCIP0
      0000009DH   SFRSYM    DATA     BYTE      CCU6_T12PRH
      000000C8H.3 SFRSYM    DATA     BIT       P4_3
      000000B0H.4 SFRSYM    DATA     BIT       P3_4
      000000A0H.5 SFRSYM    DATA     BIT       P2_5
      00000090H.6 SFRSYM    DATA     BIT       P1_6
LX51 LINKER/LOCATER V4.66.41.0                                                        03/18/2016  11:02:42  PAGE 22


      00000080H.7 SFRSYM    DATA     BIT       P0_7
      000000E8H.5 SFRSYM    DATA     BIT       ECCIP1
      000000B2H   SFRSYM    DATA     BYTE      MDU_MR0
      0000009FH   SFRSYM    DATA     BYTE      CCU6_T13PRH
      0000009AH   SFRSYM    DATA     BYTE      CCU6_MCMOUTL
      000000C8H.4 SFRSYM    DATA     BIT       P4_4
      000000B0H.5 SFRSYM    DATA     BIT       P3_5
      000000A0H.6 SFRSYM    DATA     BIT       P2_6
      00000090H.7 SFRSYM    DATA     BIT       P1_7
      000000E8H.6 SFRSYM    DATA     BIT       ECCIP2
      000000A8H.4 SFRSYM    DATA     BIT       ES
      000000CDH   SFRSYM    DATA     BYTE      UART1_FDSTEP
      000000B3H   SFRSYM    DATA     BYTE      MDU_MR1
      0000009DH   SFRSYM    DATA     BYTE      CCU6_IENH
      000000C8H.5 SFRSYM    DATA     BIT       P4_5
      000000B0H.6 SFRSYM    DATA     BIT       P3_6
      000000A0H.7 SFRSYM    DATA     BIT       P2_7
      000000F8H   SFRSYM    DATA     BIT       PADC
      000000E8H.7 SFRSYM    DATA     BIT       ECCIP3
      000000B4H   SFRSYM    DATA     BYTE      MDU_MR2
      000000B8H   SFRSYM    DATA     BYTE      IP
      000000BCH   SFRSYM    DATA     BYTE      FEAL
      000000C8H.6 SFRSYM    DATA     BIT       P4_6
      000000B0H.7 SFRSYM    DATA     BIT       P3_7
      000000B5H   SFRSYM    DATA     BYTE      MDU_MR3
      0000009CH   SFRSYM    DATA     BYTE      CCU6_T12PRL
      000000D8H   SFRSYM    DATA     BYTE      CAN_ADCON
      000000C8H.7 SFRSYM    DATA     BIT       P4_7
      000000FAH   SFRSYM    DATA     WORD      CCU6_CC60SRLH
      00000098H   SFRSYM    DATA     BIT       RI
      000000B6H   SFRSYM    DATA     BYTE      MDU_MR4
      0000009EH   SFRSYM    DATA     BYTE      CCU6_T13PRL
      000000FCH   SFRSYM    DATA     WORD      CCU6_CC61SRLH
      000000D0H.7 SFRSYM    DATA     BIT       CY
      000000B7H   SFRSYM    DATA     BYTE      MDU_MR5
      0000009CH   SFRSYM    DATA     BYTE      CCU6_IENL
      000000FEH   SFRSYM    DATA     WORD      CCU6_CC62SRLH
      00000098H.1 SFRSYM    DATA     BIT       TI
      000000FFH   SFRSYM    DATA     BYTE      CCU6_TRPCTRH
      0000009AH   SFRSYM    DATA     WORD      CCU6_CC63SRLH
      000000F8H.4 SFRSYM    DATA     BIT       PCCIP0
      000000FEH   SFRSYM    DATA     BYTE      CCU6_TRPCTRL
      000000CBH   SFRSYM    DATA     BYTE      ADC_RESRA0H
      000000F8H.5 SFRSYM    DATA     BIT       PCCIP1
      000000BDH   SFRSYM    DATA     BYTE      WDTWINB
      000000CDH   SFRSYM    DATA     BYTE      ADC_RESRA1H
      000000B8H.4 SFRSYM    DATA     BIT       PS
      000000F8H.6 SFRSYM    DATA     BIT       PCCIP2
      000000A0H.4 SFRSYM    DATA     BIT       DMAP
      000000ABH   SFRSYM    DATA     BYTE      SSC_CONH_O
      00000081H   SFRSYM    DATA     BYTE      SP
      0000009FH   SFRSYM    DATA     BYTE      CCU6_INPH
      000000BDH   SFRSYM    DATA     BYTE      BCON
      000000CFH   SFRSYM    DATA     BYTE      ADC_RESRA2H
      000000F8H.7 SFRSYM    DATA     BIT       PCCIP3
      000000ABH   SFRSYM    DATA     BYTE      SSC_CONH_P
      000000A4H   SFRSYM    DATA     BYTE      CCU6_PISEL2
      000000D3H   SFRSYM    DATA     BYTE      ADC_RESRA3H
      000000D0H.2 SFRSYM    DATA     BIT       OV
      000000CAH   SFRSYM    DATA     BYTE      ADC_RESRA0L
      0000009BH   SFRSYM    DATA     BYTE      CCU6_T12MSELH
      000000CCH   SFRSYM    DATA     BYTE      ADC_RESRA1L
      000000AAH   SFRSYM    DATA     BYTE      SSC_CONL_O
      000000AFH   SFRSYM    DATA     BYTE      SSC_BRH
      000000B6H   SFRSYM    DATA     BYTE      OSC_CON
LX51 LINKER/LOCATER V4.66.41.0                                                        03/18/2016  11:02:42  PAGE 23


      0000009EH   SFRSYM    DATA     BYTE      CCU6_INPL
      000000CEH   SFRSYM    DATA     BYTE      ADC_RESRA2L
      000000C3H   SFRSYM    DATA     BYTE      T21_RC2H
      000000AAH   SFRSYM    DATA     BYTE      SSC_CONL_P
      000000D2H   SFRSYM    DATA     BYTE      ADC_RESRA3L
      000000C0H.1 SFRSYM    DATA     BIT       C_T2
      000000B7H   SFRSYM    DATA     BYTE      PLL_CON
      000000A7H   SFRSYM    DATA     BYTE      CCU6_TCTR0H
      0000009AH   SFRSYM    DATA     BYTE      CCU6_T12MSELL
      000000A5H   SFRSYM    DATA     BYTE      CCU6_ISRH
      000000ADH   SFRSYM    DATA     BYTE      SSC_RBL
      000000AEH   SFRSYM    DATA     BYTE      SSC_BRL
      000000A5H   SFRSYM    DATA     BYTE      CCU6_ISSH
      000000CFH   SFRSYM    DATA     BYTE      ADC_ETRCR
      000000CAH   SFRSYM    DATA     WORD      ADC_RESR0LH
      000000C8H   SFRSYM    DATA     BIT       RI_1
      000000C2H   SFRSYM    DATA     BYTE      T21_RC2L
      000000FBH   SFRSYM    DATA     BYTE      CCU6_TCTR2H
      000000CCH   SFRSYM    DATA     WORD      ADC_RESR1LH
      000000ACH   SFRSYM    DATA     BYTE      SSC_TBL
      000000B4H   SFRSYM    DATA     BYTE      IRCON0
      000000CFH   SFRSYM    DATA     BYTE      ADC_Q0R0
      000000CEH   SFRSYM    DATA     WORD      ADC_RESR2LH
      000000C8H.1 SFRSYM    DATA     BIT       TI_1
      000000BDH   SFRSYM    DATA     BYTE      MODSUSP
      000000B5H   SFRSYM    DATA     BYTE      IRCON1
      0000009DH   SFRSYM    DATA     BYTE      CCU6_TCTR4H
      000000A6H   SFRSYM    DATA     BYTE      CCU6_TCTR0L
      000000A4H   SFRSYM    DATA     BYTE      CCU6_ISRL
      000000D2H   SFRSYM    DATA     WORD      ADC_RESR3LH
      000000E8H.1 SFRSYM    DATA     BIT       ESSC
      000000B4H   SFRSYM    DATA     BYTE      PMCON0
      000000B6H   SFRSYM    DATA     BYTE      IRCON2
      000000A4H   SFRSYM    DATA     BYTE      CCU6_ISSL
      000000DBH   SFRSYM    DATA     WORD      CAN_DATA01
      000000B5H   SFRSYM    DATA     BYTE      PMCON1
      00000080H   SFRSYM    DATA     BYTE      P0_PUDSEL
      000000F1H   SFRSYM    DATA     BYTE      MMCR
      000000B4H   SFRSYM    DATA     BYTE      IRCON3
      000000FAH   SFRSYM    DATA     BYTE      CCU6_TCTR2L
      00000099H   SFRSYM    DATA     BYTE      SBUF
      000000BBH   SFRSYM    DATA     BYTE      PMCON2
      00000087H   SFRSYM    DATA     BYTE      PCON
      00000090H   SFRSYM    DATA     BYTE      P1_PUDSEL
      000000F5H   SFRSYM    DATA     BYTE      MMDR
      000000B5H   SFRSYM    DATA     BYTE      IRCON4
      000000A0H   SFRSYM    DATA     BYTE      P2_PUDSEL
      0000009BH   SFRSYM    DATA     BYTE      CD_CORDXH
      0000009CH   SFRSYM    DATA     BYTE      CCU6_TCTR4L
      000000C4H   SFRSYM    DATA     WORD      T21_T2LH
      000000B0H.1 SFRSYM    DATA     BIT       IERR
      000000B0H   SFRSYM    DATA     BYTE      P3_PUDSEL
      0000009DH   SFRSYM    DATA     BYTE      CD_CORDYH
      000000DDH   SFRSYM    DATA     WORD      CAN_DATA23
      00000098H   SFRSYM    DATA     BYTE      SCON
      000000C8H   SFRSYM    DATA     BYTE      P4_PUDSEL
      0000009FH   SFRSYM    DATA     BYTE      CD_CORDZH
      00000089H   SFRSYM    DATA     BYTE      TMOD
      00000088H   SFRSYM    DATA     BYTE      TCON
      000000C5H   SFRSYM    DATA     BYTE      T2_T2H
      00000092H   SFRSYM    DATA     BYTE      P5_PUDSEL
      000000A6H   SFRSYM    DATA     BYTE      CCU6_PSLR
      000000B0H.2 SFRSYM    DATA     BIT       MDU_BSY
      0000009AH   SFRSYM    DATA     BYTE      CD_CORDXL
      0000009CH   SFRSYM    DATA     BYTE      CD_CORDYL
LX51 LINKER/LOCATER V4.66.41.0                                                        03/18/2016  11:02:42  PAGE 24


      000000BFH   SFRSYM    DATA     BYTE      WDTH
      0000009EH   SFRSYM    DATA     BYTE      CD_CORDZL
      000000B0H   SFRSYM    DATA     BIT       IRDY
      000000C4H   SFRSYM    DATA     BYTE      T2_T2L
      000000CAH   SFRSYM    DATA     BYTE      ADC_GLOBCTR
      000000F8H.1 SFRSYM    DATA     BIT       PSSC
      000000CCH   SFRSYM    DATA     BYTE      UART1_FDCON
      000000A7H   SFRSYM    DATA     BYTE      CCU6_MCMCTR
      000000BEH   SFRSYM    DATA     BYTE      WDTL
      000000B3H   SFRSYM    DATA     BYTE      XADDRH
      00000088H.1 SFRSYM    DATA     BIT       IE0
      000000FAH   SFRSYM    DATA     WORD      CCU6_T12LH
      00000088H.3 SFRSYM    DATA     BIT       IE1
      000000FCH   SFRSYM    DATA     WORD      CCU6_T13LH
      00000086H   SFRSYM    DATA     BYTE      P0_DIR
      000000F2H   SFRSYM    DATA     BYTE      MMSR
      00000091H   SFRSYM    DATA     BYTE      P1_DIR
      000000F0H   SFRSYM    DATA     BYTE      B
      000000CAH   SFRSYM    DATA     BYTE      ADC_RCR0
      000000A1H   SFRSYM    DATA     BYTE      P2_DIR
      000000CBH   SFRSYM    DATA     BYTE      ADC_RCR1
      000000C2H   SFRSYM    DATA     WORD      T2_RC2LH
      000000B1H   SFRSYM    DATA     BYTE      P3_DIR
      000000F3H   SFRSYM    DATA     BYTE      MMBPCR
      000000CCH   SFRSYM    DATA     BYTE      ADC_RCR2
      000000C0H   SFRSYM    DATA     BIT       CP_RL2
      000000C9H   SFRSYM    DATA     BYTE      P4_DIR
      000000CDH   SFRSYM    DATA     BYTE      ADC_RCR3
      000000CEH   SFRSYM    DATA     BYTE      UART1_FDRES
      000000B2H   SFRSYM    DATA     BYTE      PORT_PAGE
      00000093H   SFRSYM    DATA     BYTE      P5_DIR
      000000BBH   SFRSYM    DATA     BYTE      NMICON
      000000FAH   SFRSYM    DATA     WORD      CCU6_CC60RLH
      000000D1H   SFRSYM    DATA     BYTE      ADC_PAGE
      000000E0H   SFRSYM    DATA     BYTE      ACC
      000000FCH   SFRSYM    DATA     WORD      CCU6_CC61RLH
      000000EAH   SFRSYM    DATA     BYTE      FDSTEP
      000000A1H   SFRSYM    DATA     BYTE      CD_CON
      000000FEH   SFRSYM    DATA     WORD      CCU6_CC62RLH
      000000A8H.1 SFRSYM    DATA     BIT       ET0
      000000A9H   SFRSYM    DATA     BYTE      SSC_PISEL
      000000F7H   SFRSYM    DATA     BYTE      HWBPDR
      000000CBH   SFRSYM    DATA     BYTE      ADC_GLOBSTR
      0000009AH   SFRSYM    DATA     WORD      CCU6_CC63RLH
      00000088H.5 SFRSYM    DATA     BIT       TF0
      000000A8H.3 SFRSYM    DATA     BIT       ET1
      000000F8H   SFRSYM    DATA     BYTE      IP1
      000000CDH   SFRSYM    DATA     BYTE      ADC_QMR0
      00000088H.7 SFRSYM    DATA     BIT       TF1
      000000A8H.5 SFRSYM    DATA     BIT       ET2
      000000C0H.7 SFRSYM    DATA     BIT       TF2
      00000098H.2 SFRSYM    DATA     BIT       RB8
      0000008CH   SFRSYM    DATA     BYTE      TH0
      000000D9H   SFRSYM    DATA     WORD      CAN_ADLH
      00000088H   SFRSYM    DATA     BIT       IT0
      000000A8H   SFRSYM    DATA     BIT       EX0
      0000008DH   SFRSYM    DATA     BYTE      TH1
      000000CDH   SFRSYM    DATA     BYTE      ADC_LCBR
      00000088H.2 SFRSYM    DATA     BIT       IT1
      00000098H.3 SFRSYM    DATA     BIT       TB8
      000000A8H.2 SFRSYM    DATA     BIT       EX1
      000000C1H   SFRSYM    DATA     BYTE      T2_T2MOD
      000000C0H   SFRSYM    DATA     BYTE      T2_T2CON
      000000FBH   SFRSYM    DATA     BYTE      CCU6_CC60SRH
      000000D0H   SFRSYM    DATA     BIT       P
LX51 LINKER/LOCATER V4.66.41.0                                                        03/18/2016  11:02:42  PAGE 25


      000000E8H.2 SFRSYM    DATA     BIT       EX2
      000000A5H   SFRSYM    DATA     BYTE      CCU6_T12DTCH
      000000FDH   SFRSYM    DATA     BYTE      CCU6_CC61SRH
      000000CAH   SFRSYM    DATA     BYTE      ADC_CHCTR0
      00000098H.7 SFRSYM    DATA     BIT       SM0
      0000008AH   SFRSYM    DATA     BYTE      TL0
      000000FFH   SFRSYM    DATA     BYTE      CCU6_CC62SRH
      000000CEH   SFRSYM    DATA     BYTE      ADC_QSR0
      000000CBH   SFRSYM    DATA     BYTE      ADC_CHCTR1
      00000098H.6 SFRSYM    DATA     BIT       SM1
      000000BBH   SFRSYM    DATA     BYTE      WDTCON
      0000008BH   SFRSYM    DATA     BYTE      TL1
      0000009BH   SFRSYM    DATA     BYTE      CCU6_CC63SRH
      000000CCH   SFRSYM    DATA     BYTE      ADC_CHCTR2
      00000098H.5 SFRSYM    DATA     BIT       SM2
      000000FAH   SFRSYM    DATA     BYTE      CCU6_CC60SRL
      000000CDH   SFRSYM    DATA     BYTE      ADC_CHCTR3
      000000A4H   SFRSYM    DATA     BYTE      CCU6_T12DTCL
      000000FCH   SFRSYM    DATA     BYTE      CCU6_CC61SRL
      000000CEH   SFRSYM    DATA     BYTE      ADC_CHCTR4
      000000B8H.1 SFRSYM    DATA     BIT       PT0
      000000BCH   SFRSYM    DATA     BYTE      WDTREL
      000000BBH   SFRSYM    DATA     BYTE      PASSWD
      000000FEH   SFRSYM    DATA     BYTE      CCU6_CC62SRL
      000000CFH   SFRSYM    DATA     BYTE      ADC_CHCTR5
      000000D0H.3 SFRSYM    DATA     BIT       RS0
      000000B8H.3 SFRSYM    DATA     BIT       PT1
      0000009AH   SFRSYM    DATA     BYTE      CCU6_CC63SRL
      000000D2H   SFRSYM    DATA     BYTE      ADC_CHCTR6
      00000088H.4 SFRSYM    DATA     BIT       TR0
      000000D0H.4 SFRSYM    DATA     BIT       RS1
      000000B8H.5 SFRSYM    DATA     BIT       PT2
      000000A0H   SFRSYM    DATA     BIT       CD_BSY
      000000D3H   SFRSYM    DATA     BYTE      ADC_CHCTR7
      00000088H.6 SFRSYM    DATA     BIT       TR1
      000000A0H.2 SFRSYM    DATA     BIT       EOC
      0000009DH   SFRSYM    DATA     BYTE      CCU6_ISH
      000000CEH   SFRSYM    DATA     BYTE      ADC_INPCR0
      000000C0H.2 SFRSYM    DATA     BIT       TR2
      000000B8H   SFRSYM    DATA     BIT       PX0
      000000CBH   SFRSYM    DATA     BYTE      UART1_BG
      00000080H   SFRSYM    DATA     BYTE      P0_ALTSEL0
      000000F6H   SFRSYM    DATA     BYTE      HWBPSR
      000000B8H.2 SFRSYM    DATA     BIT       PX1
      00000090H   SFRSYM    DATA     BYTE      P1_ALTSEL0
      00000086H   SFRSYM    DATA     BYTE      P0_ALTSEL1
      000000F8H.2 SFRSYM    DATA     BIT       PX2
      00000091H   SFRSYM    DATA     BYTE      P1_ALTSEL1
      000000FFH   SFRSYM    DATA     BYTE      CCU6_CMPSTATH
      000000B0H   SFRSYM    DATA     BYTE      P3_ALTSEL0
      0000009CH   SFRSYM    DATA     BYTE      CCU6_ISL
      000000CEH   SFRSYM    DATA     BYTE      ADC_VFCR
      000000C8H   SFRSYM    DATA     BYTE      P4_ALTSEL0
      000000B1H   SFRSYM    DATA     BYTE      P3_ALTSEL1
      00000083H   SFRSYM    DATA     BYTE      DPH
      000000C8H.2 SFRSYM    DATA     BIT       RB8_1
      00000092H   SFRSYM    DATA     BYTE      P5_ALTSEL0
      000000C9H   SFRSYM    DATA     BYTE      P4_ALTSEL1
      00000093H   SFRSYM    DATA     BYTE      P5_ALTSEL1
      00000086H   SFRSYM    DATA     BYTE      P0_PUDEN
      000000FEH   SFRSYM    DATA     BYTE      CCU6_CMPSTATL
      000000C8H.3 SFRSYM    DATA     BIT       TB8_1
      000000A0H.3 SFRSYM    DATA     BIT       INT_EN
      00000091H   SFRSYM    DATA     BYTE      P1_PUDEN
      000000CBH   SFRSYM    DATA     BYTE      ADC_RESR0H
LX51 LINKER/LOCATER V4.66.41.0                                                        03/18/2016  11:02:42  PAGE 26


      000000CCH   SFRSYM    DATA     BYTE      ADC_PRAR
      000000A1H   SFRSYM    DATA     BYTE      P2_PUDEN
      000000B3H   SFRSYM    DATA     BYTE      MODPISEL
      00000082H   SFRSYM    DATA     BYTE      DPL
      000000CDH   SFRSYM    DATA     BYTE      ADC_RESR1H
      000000C8H.7 SFRSYM    DATA     BIT       SM0_1
      000000B1H   SFRSYM    DATA     BYTE      P3_PUDEN
      000000B9H   SFRSYM    DATA     BYTE      IPH
      000000CFH   SFRSYM    DATA     BYTE      ADC_RESR2H
      0000009CH   SFRSYM    DATA     WORD      CCU6_T12PRLH
      000000C8H.6 SFRSYM    DATA     BIT       SM1_1
      000000C9H   SFRSYM    DATA     BYTE      P4_PUDEN
      000000E9H   SFRSYM    DATA     BYTE      MMCR2
      000000D3H   SFRSYM    DATA     BYTE      ADC_RESR3H
      000000CBH   SFRSYM    DATA     BYTE      ADC_CHINCR
      0000009EH   SFRSYM    DATA     WORD      CCU6_T13PRLH
      000000C8H.5 SFRSYM    DATA     BIT       SM2_1
      000000C0H.3 SFRSYM    DATA     BIT       EXEN2
      00000093H   SFRSYM    DATA     BYTE      P5_PUDEN
      000000CAH   SFRSYM    DATA     BYTE      ADC_RESR0L
      000000CCH   SFRSYM    DATA     BYTE      ADC_RESR1L
      00000098H.4 SFRSYM    DATA     BIT       REN
      000000CEH   SFRSYM    DATA     BYTE      ADC_RESR2L
      000000CAH   SFRSYM    DATA     BYTE      ADC_CHINFR
      000000C5H   SFRSYM    DATA     BYTE      T21_T2H
      0000009FH   SFRSYM    DATA     BYTE      CCU6_MCMOUTSH
      000000D2H   SFRSYM    DATA     BYTE      ADC_RESR3L
      000000A0H   SFRSYM    DATA     BYTE      CD_STATC
      000000E8H.3 SFRSYM    DATA     BIT       EXM
      000000C4H   SFRSYM    DATA     BYTE      T21_T2L
      000000BFH   SFRSYM    DATA     BYTE      SCU_PAGE
      0000009FH   SFRSYM    DATA     BYTE      CCU6_PISEL0H
      0000009EH   SFRSYM    DATA     BYTE      CCU6_MCMOUTSL
      000000E9H   SFRSYM    DATA     BYTE      FDCON
      000000B0H   SFRSYM    DATA     BYTE      MDU_MDUSTAT
      000000CAH   SFRSYM    DATA     WORD      ADC_RESRA0LH
      000000CCH   SFRSYM    DATA     WORD      ADC_RESRA1LH
      000000E9H   SFRSYM    DATA     BYTE      MISC_CON
      0000009EH   SFRSYM    DATA     BYTE      CCU6_PISEL0L
      000000CEH   SFRSYM    DATA     WORD      ADC_RESRA2LH
      000000CDH   SFRSYM    DATA     BYTE      ADC_CHINPR
      000000D2H   SFRSYM    DATA     WORD      ADC_RESRA3LH
      000000BAH   SFRSYM    DATA     BYTE      CMCON
      000000CAH   SFRSYM    DATA     BYTE      UART1_BCON
      000000FBH   SFRSYM    DATA     BYTE      CCU6_T12H
      000000CFH   SFRSYM    DATA     BYTE      ADC_EVINCR
      000000CCH   SFRSYM    DATA     BYTE      ADC_CHINSR
      00000080H   SFRSYM    DATA     BYTE      P0_OD
      000000BEH   SFRSYM    DATA     BYTE      COCON
      000000FDH   SFRSYM    DATA     BYTE      CCU6_T13H
      000000C2H   SFRSYM    DATA     WORD      T21_RC2LH
      00000090H   SFRSYM    DATA     BYTE      P1_OD
      000000D0H.5 SFRSYM    DATA     BIT       F0
      000000F8H.3 SFRSYM    DATA     BIT       PXM
      000000EBH   SFRSYM    DATA     BYTE      MMWR1
      000000EBH   SFRSYM    DATA     BYTE      FDRES
      000000CEH   SFRSYM    DATA     BYTE      ADC_EVINFR
      000000C8H.4 SFRSYM    DATA     BIT       REN_1
      000000D0H.1 SFRSYM    DATA     BIT       F1
      000000C3H   SFRSYM    DATA     BYTE      T2_RC2H
      000000B0H   SFRSYM    DATA     BYTE      P3_OD
      000000ECH   SFRSYM    DATA     BYTE      MMWR2
      000000FAH   SFRSYM    DATA     BYTE      CCU6_T12L
      000000C8H   SFRSYM    DATA     BYTE      P4_OD
      000000FCH   SFRSYM    DATA     BYTE      CCU6_T13L
LX51 LINKER/LOCATER V4.66.41.0                                                        03/18/2016  11:02:42  PAGE 27


      00000092H   SFRSYM    DATA     BYTE      P5_OD
      000000B7H   SFRSYM    DATA     BYTE      EXICON0
      000000F4H   SFRSYM    DATA     BYTE      MMICR
      000000BAH   SFRSYM    DATA     BYTE      EXICON1
      000000C2H   SFRSYM    DATA     BYTE      T2_RC2L
      000000D0H   SFRSYM    DATA     BYTE      PSW
      000000FBH   SFRSYM    DATA     BYTE      CCU6_CC60RH
      00000080H   SFRSYM    DATA     BYTE      P0_DATA
      000000FDH   SFRSYM    DATA     BYTE      CCU6_CC61RH
      00000090H   SFRSYM    DATA     BYTE      P1_DATA
      000000FFH   SFRSYM    DATA     BYTE      CCU6_CC62RH
      000000A0H   SFRSYM    DATA     BYTE      P2_DATA
      0000009BH   SFRSYM    DATA     BYTE      CCU6_CC63RH
      00000008H   SYMBOL    DATA     INT       bufferCount
      0100037DH   SYMBOL    CODE     ---       _?ix1000
      0200F171H   SYMBOL    XDATA    ---       receiveBuffer

      010007D5H   BLOCK     CODE     ---       LVL=0
      010007D5H   LINE      ---      ---       #60
      010007D5H   LINE      ---      ---       #61
      010007D5H   LINE      ---      ---       #73
      010007D8H   LINE      ---      ---       #74
      010007DBH   LINE      ---      ---       #75
      010007DEH   LINE      ---      ---       #76
      010007E1H   LINE      ---      ---       #77
      010007E4H   LINE      ---      ---       #80
      010007E7H   LINE      ---      ---       #81
      010007E9H   LINE      ---      ---       #82
      010007ECH   LINE      ---      ---       #91
      010007EFH   LINE      ---      ---       #92
      010007F2H   LINE      ---      ---       #93
      010007F5H   LINE      ---      ---       #94
      010007F8H   LINE      ---      ---       #97
      010007FAH   LINE      ---      ---       #99
      ---         BLOCKEND  ---      ---       LVL=0

      010005FEH   BLOCK     CODE     ---       LVL=0
      01000604H   LINE      ---      ---       #133
      00000001H   SYMBOL    DATA     ---       message
      01000604H   BLOCK     CODE     NEAR LAB  LVL=1
      01000604H   LINE      ---      ---       #134
      01000604H   LINE      ---      ---       #135
      01000608H   LINE      ---      ---       #136
      0100060AH   LINE      ---      ---       #137
      0100060DH   LINE      ---      ---       #138
      0100060FH   LINE      ---      ---       #139
      01000616H   LINE      ---      ---       #140
      01000618H   LINE      ---      ---       #141
      00000001H   SYMBOL    DATA     ---       current
      ---         BLOCKEND  CODE     ---       LVL=1
      ---         BLOCKEND  CODE     ---       LVL=0

      010006A3H   BLOCK     CODE     ---       LVL=0
      010006A3H   LINE      ---      ---       #143
      0000003FH   SYMBOL    DATA     ---       command
      010006A9H   BLOCK     CODE     NEAR LAB  LVL=1
      010006A9H   LINE      ---      ---       #145
      010006AFH   LINE      ---      ---       #146
      010006C1H   LINE      ---      ---       #147
      010006EAH   LINE      ---      ---       #148
      0100071CH   LINE      ---      ---       #150
      0100072AH   LINE      ---      ---       #152
      0100072DH   LINE      ---      ---       #153
      0100074CH   LINE      ---      ---       #154
      0100074CH   LINE      ---      ---       #155
LX51 LINKER/LOCATER V4.66.41.0                                                        03/18/2016  11:02:42  PAGE 28


      01000755H   LINE      ---      ---       #156
      01000755H   LINE      ---      ---       #157
      01000755H   LINE      ---      ---       #158
      01000764H   LINE      ---      ---       #159
      01000764H   LINE      ---      ---       #160
      01000764H   LINE      ---      ---       #161
      01000773H   LINE      ---      ---       #162
      01000773H   LINE      ---      ---       #163
      01000773H   LINE      ---      ---       #164
      01000775H   LINE      ---      ---       #165
      01000775H   LINE      ---      ---       #166
      01000775H   LINE      ---      ---       #167
      01000784H   LINE      ---      ---       #168
      01000784H   LINE      ---      ---       #169
      01000784H   LINE      ---      ---       #170
      01000786H   LINE      ---      ---       #171
      01000786H   LINE      ---      ---       #172
      01000789H   LINE      ---      ---       #176
      01000791H   LINE      ---      ---       #177
      01000791H   LINE      ---      ---       #178
      00000042H   SYMBOL    DATA     INT       commandSize
      0200F000H   SYMBOL    XDATA    ---       respondMessage
      00000020H.0 SYMBOL    BIT      BIT       isNormalCommand
      00000020H.1 SYMBOL    BIT      BIT       isSetUUIDCommand
      ---         BLOCKEND  CODE     ---       LVL=1
      ---         BLOCKEND  CODE     ---       LVL=0

      0100082FH   BLOCK     CODE     ---       LVL=0
      0100084CH   LINE      ---      ---       #182
      0100084CH   LINE      ---      ---       #185
      0100084FH   LINE      ---      ---       #186
      01000852H   LINE      ---      ---       #187
      01000852H   LINE      ---      ---       #188
      01000854H   LINE      ---      ---       #189
      01000854H   LINE      ---      ---       #190
      01000857H   LINE      ---      ---       #191
      01000857H   BLOCK     CODE     NEAR LAB  LVL=1
      01000857H   LINE      ---      ---       #192
      0100085AH   LINE      ---      ---       #193
      01000873H   LINE      ---      ---       #194
      0100087CH   LINE      ---      ---       #195
      0100088BH   LINE      ---      ---       #196
      01000891H   LINE      ---      ---       #197
      01000893H   LINE      ---      ---       #198
      010008A2H   LINE      ---      ---       #199
      010008AAH   LINE      ---      ---       #200
      010008AAH   LINE      ---      ---       #201
      010008ACH   LINE      ---      ---       #202
      0000003EH   SYMBOL    DATA     CHAR      receiveByte
      010008ACH   LINE      ---      ---       #205
      010008AFH   LINE      ---      ---       #206
      010008AFH   LINE      CODE     ---       #206
      ---         BLOCKEND  CODE     ---       LVL=0

      ---         MODULE    ---      ---       DEVICECONTROLLER
      01000619H   PUBLIC    CODE     ---       _setUUID
      01000997H   PUBLIC    CODE     ---       _setHVMonitorMode
      01000952H   PUBLIC    CODE     ---       _setChargeMode
      01000799H   PUBLIC    CODE     ---       sendHVRelayStatus
      01000020H   PUBLIC    CODE     ---       isAllHVRelayOK
      0100090EH   PUBLIC    CODE     ---       _enableLCRChannel
      010008CAH   PUBLIC    CODE     ---       _enableLCChannel
      01000688H   PUBLIC    CODE     ---       sendUUID
      000000A0H.5 SFRSYM    DATA     BIT       KEEPX
      000000B0H   SFRSYM    DATA     BYTE      P3_DATA
LX51 LINKER/LOCATER V4.66.41.0                                                        03/18/2016  11:02:42  PAGE 29


      000000FAH   SFRSYM    DATA     BYTE      CCU6_CC60RL
      000000DBH   SFRSYM    DATA     BYTE      CAN_DATA0
      000000A0H.6 SFRSYM    DATA     BIT       KEEPY
      000000C1H   SFRSYM    DATA     BYTE      T21_T2MOD
      000000C0H   SFRSYM    DATA     BYTE      T21_T2CON
      000000C8H   SFRSYM    DATA     BYTE      P4_DATA
      000000FCH   SFRSYM    DATA     BYTE      CCU6_CC61RL
      000000DCH   SFRSYM    DATA     BYTE      CAN_DATA1
      000000D3H   SFRSYM    DATA     BYTE      ADC_EVINPR
      000000A0H.7 SFRSYM    DATA     BIT       KEEPZ
      000000C9H   SFRSYM    DATA     BYTE      UART1_SBUF
      00000092H   SFRSYM    DATA     BYTE      P5_DATA
      000000FEH   SFRSYM    DATA     BYTE      CCU6_CC62RL
      000000DDH   SFRSYM    DATA     BYTE      CAN_DATA2
      000000DAH   SFRSYM    DATA     BYTE      CAN_ADH
      000000C4H   SFRSYM    DATA     WORD      T2_T2LH
      0000009AH   SFRSYM    DATA     BYTE      CCU6_CC63RL
      000000DEH   SFRSYM    DATA     BYTE      CAN_DATA3
      000000D2H   SFRSYM    DATA     BYTE      ADC_EVINSR
      000000D0H.6 SFRSYM    DATA     BIT       AC
      000000C8H   SFRSYM    DATA     BYTE      UART1_SCON
      000000D9H   SFRSYM    DATA     BYTE      CAN_ADL
      000000A8H.7 SFRSYM    DATA     BIT       EA
      000000CAH   SFRSYM    DATA     BYTE      ADC_CRCR1
      000000FDH   SFRSYM    DATA     BYTE      CCU6_MODCTRH
      000000B2H   SFRSYM    DATA     BYTE      MDU_MD0
      000000BEH   SFRSYM    DATA     BYTE      BG
      000000B3H   SFRSYM    DATA     BYTE      MDU_MD1
      000000BCH   SFRSYM    DATA     BYTE      NMISR
      000000B4H   SFRSYM    DATA     BYTE      MDU_MD2
      000000FCH   SFRSYM    DATA     BYTE      CCU6_MODCTRL
      000000A0H.1 SFRSYM    DATA     BIT       ERROR
      000000B5H   SFRSYM    DATA     BYTE      MDU_MD3
      000000B6H   SFRSYM    DATA     BYTE      MDU_MD4
      000000A8H   SFRSYM    DATA     BYTE      IEN0
      000000B3H   SFRSYM    DATA     BYTE      ID
      000000E8H   SFRSYM    DATA     BIT       EADC
      000000B7H   SFRSYM    DATA     BYTE      MDU_MD5
      000000E8H   SFRSYM    DATA     BYTE      IEN1
      000000A7H   SFRSYM    DATA     BYTE      CCU6_CMPMODIFH
      00000080H   SFRSYM    DATA     BIT       P0_0
      000000B1H   SFRSYM    DATA     BYTE      MDU_MDUCON
      000000CCH   SFRSYM    DATA     BYTE      ADC_CRMR1
      00000090H   SFRSYM    DATA     BIT       P1_0
      00000080H.1 SFRSYM    DATA     BIT       P0_1
      000000A3H   SFRSYM    DATA     BYTE      CCU6_PAGE
      000000A0H   SFRSYM    DATA     BIT       P2_0
      00000090H.1 SFRSYM    DATA     BIT       P1_1
      00000080H.2 SFRSYM    DATA     BIT       P0_2
      0000008FH   SFRSYM    DATA     BYTE      SYSCON0
      000000B7H   SFRSYM    DATA     BYTE      MODPISEL1
      000000A6H   SFRSYM    DATA     BYTE      CCU6_CMPMODIFL
      000000B0H   SFRSYM    DATA     BIT       P3_0
      000000A0H.1 SFRSYM    DATA     BIT       P2_1
      00000090H.2 SFRSYM    DATA     BIT       P1_2
      00000080H.3 SFRSYM    DATA     BIT       P0_3
      000000BAH   SFRSYM    DATA     BYTE      MODPISEL2
      000000F9H   SFRSYM    DATA     BYTE      IPH1
      0000009BH   SFRSYM    DATA     BYTE      CCU6_MCMOUTH
      000000CBH   SFRSYM    DATA     BYTE      ADC_CRPR1
      000000C8H   SFRSYM    DATA     BIT       P4_0
      000000B0H.1 SFRSYM    DATA     BIT       P3_1
      000000A0H.2 SFRSYM    DATA     BIT       P2_2
      00000090H.3 SFRSYM    DATA     BIT       P1_3
      00000080H.4 SFRSYM    DATA     BIT       P0_4
LX51 LINKER/LOCATER V4.66.41.0                                                        03/18/2016  11:02:42  PAGE 30


      000000A2H   SFRSYM    DATA     BYTE      EO
      000000C8H.1 SFRSYM    DATA     BIT       P4_1
      000000B0H.2 SFRSYM    DATA     BIT       P3_2
      000000A0H.3 SFRSYM    DATA     BIT       P2_3
      00000090H.4 SFRSYM    DATA     BIT       P1_4
      00000080H.5 SFRSYM    DATA     BIT       P0_5
      000000BDH   SFRSYM    DATA     BYTE      FEAH
      000000D2H   SFRSYM    DATA     BYTE      ADC_QINR0
      000000D2H   SFRSYM    DATA     BYTE      ADC_QBUR0
      000000C8H.2 SFRSYM    DATA     BIT       P4_2
      000000B0H.3 SFRSYM    DATA     BIT       P3_3
      000000A0H.4 SFRSYM    DATA     BIT       P2_4
      00000090H.5 SFRSYM    DATA     BIT       P1_5
      00000080H.6 SFRSYM    DATA     BIT       P0_6
      000000C0H.6 SFRSYM    DATA     BIT       EXF2
      000000E8H.4 SFRSYM    DATA     BIT       ECCIP0
      0000009DH   SFRSYM    DATA     BYTE      CCU6_T12PRH
      000000C8H.3 SFRSYM    DATA     BIT       P4_3
      000000B0H.4 SFRSYM    DATA     BIT       P3_4
      000000A0H.5 SFRSYM    DATA     BIT       P2_5
      00000090H.6 SFRSYM    DATA     BIT       P1_6
      00000080H.7 SFRSYM    DATA     BIT       P0_7
      000000E8H.5 SFRSYM    DATA     BIT       ECCIP1
      000000B2H   SFRSYM    DATA     BYTE      MDU_MR0
      0000009FH   SFRSYM    DATA     BYTE      CCU6_T13PRH
      0000009AH   SFRSYM    DATA     BYTE      CCU6_MCMOUTL
      000000C8H.4 SFRSYM    DATA     BIT       P4_4
      000000B0H.5 SFRSYM    DATA     BIT       P3_5
      000000A0H.6 SFRSYM    DATA     BIT       P2_6
      00000090H.7 SFRSYM    DATA     BIT       P1_7
      000000E8H.6 SFRSYM    DATA     BIT       ECCIP2
      000000A8H.4 SFRSYM    DATA     BIT       ES
      000000CDH   SFRSYM    DATA     BYTE      UART1_FDSTEP
      000000B3H   SFRSYM    DATA     BYTE      MDU_MR1
      0000009DH   SFRSYM    DATA     BYTE      CCU6_IENH
      000000C8H.5 SFRSYM    DATA     BIT       P4_5
      000000B0H.6 SFRSYM    DATA     BIT       P3_6
      000000A0H.7 SFRSYM    DATA     BIT       P2_7
      000000F8H   SFRSYM    DATA     BIT       PADC
      000000E8H.7 SFRSYM    DATA     BIT       ECCIP3
      000000B4H   SFRSYM    DATA     BYTE      MDU_MR2
      000000B8H   SFRSYM    DATA     BYTE      IP
      000000BCH   SFRSYM    DATA     BYTE      FEAL
      000000C8H.6 SFRSYM    DATA     BIT       P4_6
      000000B0H.7 SFRSYM    DATA     BIT       P3_7
      000000B5H   SFRSYM    DATA     BYTE      MDU_MR3
      0000009CH   SFRSYM    DATA     BYTE      CCU6_T12PRL
      000000D8H   SFRSYM    DATA     BYTE      CAN_ADCON
      000000C8H.7 SFRSYM    DATA     BIT       P4_7
      000000FAH   SFRSYM    DATA     WORD      CCU6_CC60SRLH
      00000098H   SFRSYM    DATA     BIT       RI
      000000B6H   SFRSYM    DATA     BYTE      MDU_MR4
      0000009EH   SFRSYM    DATA     BYTE      CCU6_T13PRL
      000000FCH   SFRSYM    DATA     WORD      CCU6_CC61SRLH
      000000D0H.7 SFRSYM    DATA     BIT       CY
      000000B7H   SFRSYM    DATA     BYTE      MDU_MR5
      0000009CH   SFRSYM    DATA     BYTE      CCU6_IENL
      000000FEH   SFRSYM    DATA     WORD      CCU6_CC62SRLH
      00000098H.1 SFRSYM    DATA     BIT       TI
      000000FFH   SFRSYM    DATA     BYTE      CCU6_TRPCTRH
      0000009AH   SFRSYM    DATA     WORD      CCU6_CC63SRLH
      000000F8H.4 SFRSYM    DATA     BIT       PCCIP0
      000000FEH   SFRSYM    DATA     BYTE      CCU6_TRPCTRL
      000000CBH   SFRSYM    DATA     BYTE      ADC_RESRA0H
      000000F8H.5 SFRSYM    DATA     BIT       PCCIP1
LX51 LINKER/LOCATER V4.66.41.0                                                        03/18/2016  11:02:42  PAGE 31


      000000BDH   SFRSYM    DATA     BYTE      WDTWINB
      000000CDH   SFRSYM    DATA     BYTE      ADC_RESRA1H
      000000B8H.4 SFRSYM    DATA     BIT       PS
      000000F8H.6 SFRSYM    DATA     BIT       PCCIP2
      000000A0H.4 SFRSYM    DATA     BIT       DMAP
      000000ABH   SFRSYM    DATA     BYTE      SSC_CONH_O
      00000081H   SFRSYM    DATA     BYTE      SP
      0000009FH   SFRSYM    DATA     BYTE      CCU6_INPH
      000000BDH   SFRSYM    DATA     BYTE      BCON
      000000CFH   SFRSYM    DATA     BYTE      ADC_RESRA2H
      000000F8H.7 SFRSYM    DATA     BIT       PCCIP3
      000000ABH   SFRSYM    DATA     BYTE      SSC_CONH_P
      000000A4H   SFRSYM    DATA     BYTE      CCU6_PISEL2
      000000D3H   SFRSYM    DATA     BYTE      ADC_RESRA3H
      000000D0H.2 SFRSYM    DATA     BIT       OV
      000000CAH   SFRSYM    DATA     BYTE      ADC_RESRA0L
      0000009BH   SFRSYM    DATA     BYTE      CCU6_T12MSELH
      000000CCH   SFRSYM    DATA     BYTE      ADC_RESRA1L
      000000AAH   SFRSYM    DATA     BYTE      SSC_CONL_O
      000000AFH   SFRSYM    DATA     BYTE      SSC_BRH
      000000B6H   SFRSYM    DATA     BYTE      OSC_CON
      0000009EH   SFRSYM    DATA     BYTE      CCU6_INPL
      000000CEH   SFRSYM    DATA     BYTE      ADC_RESRA2L
      000000C3H   SFRSYM    DATA     BYTE      T21_RC2H
      000000AAH   SFRSYM    DATA     BYTE      SSC_CONL_P
      000000D2H   SFRSYM    DATA     BYTE      ADC_RESRA3L
      000000C0H.1 SFRSYM    DATA     BIT       C_T2
      000000B7H   SFRSYM    DATA     BYTE      PLL_CON
      000000A7H   SFRSYM    DATA     BYTE      CCU6_TCTR0H
      0000009AH   SFRSYM    DATA     BYTE      CCU6_T12MSELL
      000000A5H   SFRSYM    DATA     BYTE      CCU6_ISRH
      000000ADH   SFRSYM    DATA     BYTE      SSC_RBL
      000000AEH   SFRSYM    DATA     BYTE      SSC_BRL
      000000A5H   SFRSYM    DATA     BYTE      CCU6_ISSH
      000000CFH   SFRSYM    DATA     BYTE      ADC_ETRCR
      000000CAH   SFRSYM    DATA     WORD      ADC_RESR0LH
      000000C8H   SFRSYM    DATA     BIT       RI_1
      000000C2H   SFRSYM    DATA     BYTE      T21_RC2L
      000000FBH   SFRSYM    DATA     BYTE      CCU6_TCTR2H
      000000CCH   SFRSYM    DATA     WORD      ADC_RESR1LH
      000000ACH   SFRSYM    DATA     BYTE      SSC_TBL
      000000B4H   SFRSYM    DATA     BYTE      IRCON0
      000000CFH   SFRSYM    DATA     BYTE      ADC_Q0R0
      000000CEH   SFRSYM    DATA     WORD      ADC_RESR2LH
      000000C8H.1 SFRSYM    DATA     BIT       TI_1
      000000BDH   SFRSYM    DATA     BYTE      MODSUSP
      000000B5H   SFRSYM    DATA     BYTE      IRCON1
      0000009DH   SFRSYM    DATA     BYTE      CCU6_TCTR4H
      000000A6H   SFRSYM    DATA     BYTE      CCU6_TCTR0L
      000000A4H   SFRSYM    DATA     BYTE      CCU6_ISRL
      000000D2H   SFRSYM    DATA     WORD      ADC_RESR3LH
      000000E8H.1 SFRSYM    DATA     BIT       ESSC
      000000B4H   SFRSYM    DATA     BYTE      PMCON0
      000000B6H   SFRSYM    DATA     BYTE      IRCON2
      000000A4H   SFRSYM    DATA     BYTE      CCU6_ISSL
      000000DBH   SFRSYM    DATA     WORD      CAN_DATA01
      000000B5H   SFRSYM    DATA     BYTE      PMCON1
      00000080H   SFRSYM    DATA     BYTE      P0_PUDSEL
      000000F1H   SFRSYM    DATA     BYTE      MMCR
      000000B4H   SFRSYM    DATA     BYTE      IRCON3
      000000FAH   SFRSYM    DATA     BYTE      CCU6_TCTR2L
      00000099H   SFRSYM    DATA     BYTE      SBUF
      000000BBH   SFRSYM    DATA     BYTE      PMCON2
      00000087H   SFRSYM    DATA     BYTE      PCON
      00000090H   SFRSYM    DATA     BYTE      P1_PUDSEL
LX51 LINKER/LOCATER V4.66.41.0                                                        03/18/2016  11:02:42  PAGE 32


      000000F5H   SFRSYM    DATA     BYTE      MMDR
      000000B5H   SFRSYM    DATA     BYTE      IRCON4
      000000A0H   SFRSYM    DATA     BYTE      P2_PUDSEL
      0000009BH   SFRSYM    DATA     BYTE      CD_CORDXH
      0000009CH   SFRSYM    DATA     BYTE      CCU6_TCTR4L
      000000C4H   SFRSYM    DATA     WORD      T21_T2LH
      000000B0H.1 SFRSYM    DATA     BIT       IERR
      000000B0H   SFRSYM    DATA     BYTE      P3_PUDSEL
      0000009DH   SFRSYM    DATA     BYTE      CD_CORDYH
      000000DDH   SFRSYM    DATA     WORD      CAN_DATA23
      00000098H   SFRSYM    DATA     BYTE      SCON
      000000C8H   SFRSYM    DATA     BYTE      P4_PUDSEL
      0000009FH   SFRSYM    DATA     BYTE      CD_CORDZH
      00000089H   SFRSYM    DATA     BYTE      TMOD
      00000088H   SFRSYM    DATA     BYTE      TCON
      000000C5H   SFRSYM    DATA     BYTE      T2_T2H
      00000092H   SFRSYM    DATA     BYTE      P5_PUDSEL
      000000A6H   SFRSYM    DATA     BYTE      CCU6_PSLR
      000000B0H.2 SFRSYM    DATA     BIT       MDU_BSY
      0000009AH   SFRSYM    DATA     BYTE      CD_CORDXL
      0000009CH   SFRSYM    DATA     BYTE      CD_CORDYL
      000000BFH   SFRSYM    DATA     BYTE      WDTH
      0000009EH   SFRSYM    DATA     BYTE      CD_CORDZL
      000000B0H   SFRSYM    DATA     BIT       IRDY
      000000C4H   SFRSYM    DATA     BYTE      T2_T2L
      000000CAH   SFRSYM    DATA     BYTE      ADC_GLOBCTR
      000000F8H.1 SFRSYM    DATA     BIT       PSSC
      000000CCH   SFRSYM    DATA     BYTE      UART1_FDCON
      000000A7H   SFRSYM    DATA     BYTE      CCU6_MCMCTR
      000000BEH   SFRSYM    DATA     BYTE      WDTL
      000000B3H   SFRSYM    DATA     BYTE      XADDRH
      00000088H.1 SFRSYM    DATA     BIT       IE0
      000000FAH   SFRSYM    DATA     WORD      CCU6_T12LH
      00000088H.3 SFRSYM    DATA     BIT       IE1
      000000FCH   SFRSYM    DATA     WORD      CCU6_T13LH
      00000086H   SFRSYM    DATA     BYTE      P0_DIR
      000000F2H   SFRSYM    DATA     BYTE      MMSR
      00000091H   SFRSYM    DATA     BYTE      P1_DIR
      000000F0H   SFRSYM    DATA     BYTE      B
      000000CAH   SFRSYM    DATA     BYTE      ADC_RCR0
      000000A1H   SFRSYM    DATA     BYTE      P2_DIR
      000000CBH   SFRSYM    DATA     BYTE      ADC_RCR1
      000000C2H   SFRSYM    DATA     WORD      T2_RC2LH
      000000B1H   SFRSYM    DATA     BYTE      P3_DIR
      000000F3H   SFRSYM    DATA     BYTE      MMBPCR
      000000CCH   SFRSYM    DATA     BYTE      ADC_RCR2
      000000C0H   SFRSYM    DATA     BIT       CP_RL2
      000000C9H   SFRSYM    DATA     BYTE      P4_DIR
      000000CDH   SFRSYM    DATA     BYTE      ADC_RCR3
      000000CEH   SFRSYM    DATA     BYTE      UART1_FDRES
      000000B2H   SFRSYM    DATA     BYTE      PORT_PAGE
      00000093H   SFRSYM    DATA     BYTE      P5_DIR
      000000BBH   SFRSYM    DATA     BYTE      NMICON
      000000FAH   SFRSYM    DATA     WORD      CCU6_CC60RLH
      000000D1H   SFRSYM    DATA     BYTE      ADC_PAGE
      000000E0H   SFRSYM    DATA     BYTE      ACC
      000000FCH   SFRSYM    DATA     WORD      CCU6_CC61RLH
      000000EAH   SFRSYM    DATA     BYTE      FDSTEP
      000000A1H   SFRSYM    DATA     BYTE      CD_CON
      000000FEH   SFRSYM    DATA     WORD      CCU6_CC62RLH
      000000A8H.1 SFRSYM    DATA     BIT       ET0
      000000A9H   SFRSYM    DATA     BYTE      SSC_PISEL
      000000F7H   SFRSYM    DATA     BYTE      HWBPDR
      000000CBH   SFRSYM    DATA     BYTE      ADC_GLOBSTR
      0000009AH   SFRSYM    DATA     WORD      CCU6_CC63RLH
LX51 LINKER/LOCATER V4.66.41.0                                                        03/18/2016  11:02:42  PAGE 33


      00000088H.5 SFRSYM    DATA     BIT       TF0
      000000A8H.3 SFRSYM    DATA     BIT       ET1
      000000F8H   SFRSYM    DATA     BYTE      IP1
      000000CDH   SFRSYM    DATA     BYTE      ADC_QMR0
      00000088H.7 SFRSYM    DATA     BIT       TF1
      000000A8H.5 SFRSYM    DATA     BIT       ET2
      000000C0H.7 SFRSYM    DATA     BIT       TF2
      00000098H.2 SFRSYM    DATA     BIT       RB8
      0000008CH   SFRSYM    DATA     BYTE      TH0
      000000D9H   SFRSYM    DATA     WORD      CAN_ADLH
      00000088H   SFRSYM    DATA     BIT       IT0
      000000A8H   SFRSYM    DATA     BIT       EX0
      0000008DH   SFRSYM    DATA     BYTE      TH1
      000000CDH   SFRSYM    DATA     BYTE      ADC_LCBR
      00000088H.2 SFRSYM    DATA     BIT       IT1
      00000098H.3 SFRSYM    DATA     BIT       TB8
      000000A8H.2 SFRSYM    DATA     BIT       EX1
      000000C1H   SFRSYM    DATA     BYTE      T2_T2MOD
      000000C0H   SFRSYM    DATA     BYTE      T2_T2CON
      000000FBH   SFRSYM    DATA     BYTE      CCU6_CC60SRH
      000000D0H   SFRSYM    DATA     BIT       P
      000000E8H.2 SFRSYM    DATA     BIT       EX2
      000000A5H   SFRSYM    DATA     BYTE      CCU6_T12DTCH
      000000FDH   SFRSYM    DATA     BYTE      CCU6_CC61SRH
      000000CAH   SFRSYM    DATA     BYTE      ADC_CHCTR0
      00000098H.7 SFRSYM    DATA     BIT       SM0
      0000008AH   SFRSYM    DATA     BYTE      TL0
      000000FFH   SFRSYM    DATA     BYTE      CCU6_CC62SRH
      000000CEH   SFRSYM    DATA     BYTE      ADC_QSR0
      000000CBH   SFRSYM    DATA     BYTE      ADC_CHCTR1
      00000098H.6 SFRSYM    DATA     BIT       SM1
      000000BBH   SFRSYM    DATA     BYTE      WDTCON
      0000008BH   SFRSYM    DATA     BYTE      TL1
      0000009BH   SFRSYM    DATA     BYTE      CCU6_CC63SRH
      000000CCH   SFRSYM    DATA     BYTE      ADC_CHCTR2
      00000098H.5 SFRSYM    DATA     BIT       SM2
      000000FAH   SFRSYM    DATA     BYTE      CCU6_CC60SRL
      000000CDH   SFRSYM    DATA     BYTE      ADC_CHCTR3
      000000A4H   SFRSYM    DATA     BYTE      CCU6_T12DTCL
      000000FCH   SFRSYM    DATA     BYTE      CCU6_CC61SRL
      000000CEH   SFRSYM    DATA     BYTE      ADC_CHCTR4
      000000B8H.1 SFRSYM    DATA     BIT       PT0
      000000BCH   SFRSYM    DATA     BYTE      WDTREL
      000000BBH   SFRSYM    DATA     BYTE      PASSWD
      000000FEH   SFRSYM    DATA     BYTE      CCU6_CC62SRL
      000000CFH   SFRSYM    DATA     BYTE      ADC_CHCTR5
      000000D0H.3 SFRSYM    DATA     BIT       RS0
      000000B8H.3 SFRSYM    DATA     BIT       PT1
      0000009AH   SFRSYM    DATA     BYTE      CCU6_CC63SRL
      000000D2H   SFRSYM    DATA     BYTE      ADC_CHCTR6
      00000088H.4 SFRSYM    DATA     BIT       TR0
      000000D0H.4 SFRSYM    DATA     BIT       RS1
      000000B8H.5 SFRSYM    DATA     BIT       PT2
      000000A0H   SFRSYM    DATA     BIT       CD_BSY
      000000D3H   SFRSYM    DATA     BYTE      ADC_CHCTR7
      00000088H.6 SFRSYM    DATA     BIT       TR1
      000000A0H.2 SFRSYM    DATA     BIT       EOC
      0000009DH   SFRSYM    DATA     BYTE      CCU6_ISH
      000000CEH   SFRSYM    DATA     BYTE      ADC_INPCR0
      000000C0H.2 SFRSYM    DATA     BIT       TR2
      000000B8H   SFRSYM    DATA     BIT       PX0
      000000CBH   SFRSYM    DATA     BYTE      UART1_BG
      00000080H   SFRSYM    DATA     BYTE      P0_ALTSEL0
      000000F6H   SFRSYM    DATA     BYTE      HWBPSR
      000000B8H.2 SFRSYM    DATA     BIT       PX1
LX51 LINKER/LOCATER V4.66.41.0                                                        03/18/2016  11:02:42  PAGE 34


      00000090H   SFRSYM    DATA     BYTE      P1_ALTSEL0
      00000086H   SFRSYM    DATA     BYTE      P0_ALTSEL1
      000000F8H.2 SFRSYM    DATA     BIT       PX2
      00000091H   SFRSYM    DATA     BYTE      P1_ALTSEL1
      000000FFH   SFRSYM    DATA     BYTE      CCU6_CMPSTATH
      000000B0H   SFRSYM    DATA     BYTE      P3_ALTSEL0
      0000009CH   SFRSYM    DATA     BYTE      CCU6_ISL
      000000CEH   SFRSYM    DATA     BYTE      ADC_VFCR
      000000C8H   SFRSYM    DATA     BYTE      P4_ALTSEL0
      000000B1H   SFRSYM    DATA     BYTE      P3_ALTSEL1
      00000083H   SFRSYM    DATA     BYTE      DPH
      000000C8H.2 SFRSYM    DATA     BIT       RB8_1
      00000092H   SFRSYM    DATA     BYTE      P5_ALTSEL0
      000000C9H   SFRSYM    DATA     BYTE      P4_ALTSEL1
      00000093H   SFRSYM    DATA     BYTE      P5_ALTSEL1
      00000086H   SFRSYM    DATA     BYTE      P0_PUDEN
      000000FEH   SFRSYM    DATA     BYTE      CCU6_CMPSTATL
      000000C8H.3 SFRSYM    DATA     BIT       TB8_1
      000000A0H.3 SFRSYM    DATA     BIT       INT_EN
      00000091H   SFRSYM    DATA     BYTE      P1_PUDEN
      000000CBH   SFRSYM    DATA     BYTE      ADC_RESR0H
      000000CCH   SFRSYM    DATA     BYTE      ADC_PRAR
      000000A1H   SFRSYM    DATA     BYTE      P2_PUDEN
      000000B3H   SFRSYM    DATA     BYTE      MODPISEL
      00000082H   SFRSYM    DATA     BYTE      DPL
      000000CDH   SFRSYM    DATA     BYTE      ADC_RESR1H
      000000C8H.7 SFRSYM    DATA     BIT       SM0_1
      000000B1H   SFRSYM    DATA     BYTE      P3_PUDEN
      000000B9H   SFRSYM    DATA     BYTE      IPH
      000000CFH   SFRSYM    DATA     BYTE      ADC_RESR2H
      0000009CH   SFRSYM    DATA     WORD      CCU6_T12PRLH
      000000C8H.6 SFRSYM    DATA     BIT       SM1_1
      000000C9H   SFRSYM    DATA     BYTE      P4_PUDEN
      000000E9H   SFRSYM    DATA     BYTE      MMCR2
      000000D3H   SFRSYM    DATA     BYTE      ADC_RESR3H
      000000CBH   SFRSYM    DATA     BYTE      ADC_CHINCR
      0000009EH   SFRSYM    DATA     WORD      CCU6_T13PRLH
      000000C8H.5 SFRSYM    DATA     BIT       SM2_1
      000000C0H.3 SFRSYM    DATA     BIT       EXEN2
      00000093H   SFRSYM    DATA     BYTE      P5_PUDEN
      000000CAH   SFRSYM    DATA     BYTE      ADC_RESR0L
      000000CCH   SFRSYM    DATA     BYTE      ADC_RESR1L
      00000098H.4 SFRSYM    DATA     BIT       REN
      000000CEH   SFRSYM    DATA     BYTE      ADC_RESR2L
      000000CAH   SFRSYM    DATA     BYTE      ADC_CHINFR
      000000C5H   SFRSYM    DATA     BYTE      T21_T2H
      0000009FH   SFRSYM    DATA     BYTE      CCU6_MCMOUTSH
      000000D2H   SFRSYM    DATA     BYTE      ADC_RESR3L
      000000A0H   SFRSYM    DATA     BYTE      CD_STATC
      000000E8H.3 SFRSYM    DATA     BIT       EXM
      000000C4H   SFRSYM    DATA     BYTE      T21_T2L
      000000BFH   SFRSYM    DATA     BYTE      SCU_PAGE
      0000009FH   SFRSYM    DATA     BYTE      CCU6_PISEL0H
      0000009EH   SFRSYM    DATA     BYTE      CCU6_MCMOUTSL
      000000E9H   SFRSYM    DATA     BYTE      FDCON
      000000B0H   SFRSYM    DATA     BYTE      MDU_MDUSTAT
      000000CAH   SFRSYM    DATA     WORD      ADC_RESRA0LH
      000000CCH   SFRSYM    DATA     WORD      ADC_RESRA1LH
      000000E9H   SFRSYM    DATA     BYTE      MISC_CON
      0000009EH   SFRSYM    DATA     BYTE      CCU6_PISEL0L
      000000CEH   SFRSYM    DATA     WORD      ADC_RESRA2LH
      000000CDH   SFRSYM    DATA     BYTE      ADC_CHINPR
      000000D2H   SFRSYM    DATA     WORD      ADC_RESRA3LH
      000000BAH   SFRSYM    DATA     BYTE      CMCON
      000000CAH   SFRSYM    DATA     BYTE      UART1_BCON
LX51 LINKER/LOCATER V4.66.41.0                                                        03/18/2016  11:02:42  PAGE 35


      000000FBH   SFRSYM    DATA     BYTE      CCU6_T12H
      000000CFH   SFRSYM    DATA     BYTE      ADC_EVINCR
      000000CCH   SFRSYM    DATA     BYTE      ADC_CHINSR
      00000080H   SFRSYM    DATA     BYTE      P0_OD
      000000BEH   SFRSYM    DATA     BYTE      COCON
      000000FDH   SFRSYM    DATA     BYTE      CCU6_T13H
      000000C2H   SFRSYM    DATA     WORD      T21_RC2LH
      00000090H   SFRSYM    DATA     BYTE      P1_OD
      000000D0H.5 SFRSYM    DATA     BIT       F0
      000000F8H.3 SFRSYM    DATA     BIT       PXM
      000000EBH   SFRSYM    DATA     BYTE      MMWR1
      000000EBH   SFRSYM    DATA     BYTE      FDRES
      000000CEH   SFRSYM    DATA     BYTE      ADC_EVINFR
      000000C8H.4 SFRSYM    DATA     BIT       REN_1
      000000D0H.1 SFRSYM    DATA     BIT       F1
      000000C3H   SFRSYM    DATA     BYTE      T2_RC2H
      000000B0H   SFRSYM    DATA     BYTE      P3_OD
      000000ECH   SFRSYM    DATA     BYTE      MMWR2
      000000FAH   SFRSYM    DATA     BYTE      CCU6_T12L
      000000C8H   SFRSYM    DATA     BYTE      P4_OD
      000000FCH   SFRSYM    DATA     BYTE      CCU6_T13L
      00000092H   SFRSYM    DATA     BYTE      P5_OD
      000000B7H   SFRSYM    DATA     BYTE      EXICON0
      000000F4H   SFRSYM    DATA     BYTE      MMICR
      000000BAH   SFRSYM    DATA     BYTE      EXICON1
      000000C2H   SFRSYM    DATA     BYTE      T2_RC2L
      000000D0H   SFRSYM    DATA     BYTE      PSW
      000000FBH   SFRSYM    DATA     BYTE      CCU6_CC60RH
      00000080H   SFRSYM    DATA     BYTE      P0_DATA
      000000FDH   SFRSYM    DATA     BYTE      CCU6_CC61RH
      00000090H   SFRSYM    DATA     BYTE      P1_DATA
      000000FFH   SFRSYM    DATA     BYTE      CCU6_CC62RH
      000000A0H   SFRSYM    DATA     BYTE      P2_DATA
      0000009BH   SFRSYM    DATA     BYTE      CCU6_CC63RH
      01000346H   SYMBOL    CODE     ---       _?ix1000

      01000688H   BLOCK     CODE     ---       LVL=0
      01000688H   LINE      ---      ---       #8
      01000688H   BLOCK     CODE     NEAR LAB  LVL=1
      01000688H   LINE      ---      ---       #10
      0100068EH   LINE      ---      ---       #11
      01000699H   LINE      ---      ---       #12
      0100069BH   LINE      ---      ---       #13
      0200F0C8H   SYMBOL    XDATA    ---       uuidString
      00000002H   SYMBOL    DATA     ---       currentFlashDataEndAddress
      ---         BLOCKEND  CODE     ---       LVL=1
      ---         BLOCKEND  CODE     ---       LVL=0

      010008CAH   BLOCK     CODE     ---       LVL=0
      010008CAH   LINE      ---      ---       #16
      010008CAH   LINE      ---      ---       #18
      010008CCH   LINE      ---      ---       #19
      010008CEH   LINE      ---      ---       #20
      010008D0H   LINE      ---      ---       #23
      010008DFH   LINE      ---      ---       #24
      010008DFH   LINE      ---      ---       #25
      010008E5H   LINE      ---      ---       #26
      010008E7H   LINE      ---      ---       #27
      010008E7H   LINE      ---      ---       #28
      010008E9H   LINE      ---      ---       #29
      010008EFH   LINE      ---      ---       #30
      010008F1H   LINE      ---      ---       #31
      010008F1H   LINE      ---      ---       #32
      010008F3H   LINE      ---      ---       #33
      010008F9H   LINE      ---      ---       #34
LX51 LINKER/LOCATER V4.66.41.0                                                        03/18/2016  11:02:42  PAGE 36


      010008FBH   LINE      ---      ---       #35
      010008FBH   LINE      ---      ---       #36
      010008FDH   LINE      ---      ---       #37
      01000903H   LINE      ---      ---       #38
      01000905H   LINE      ---      ---       #39
      01000905H   LINE      ---      ---       #40
      00000007H   SYMBOL    DATA     CHAR      channelCode
      ---         BLOCKEND  ---      ---       LVL=0

      0100090EH   BLOCK     CODE     ---       LVL=0
      0100090EH   LINE      ---      ---       #45
      0100090EH   LINE      ---      ---       #47
      01000910H   LINE      ---      ---       #48
      01000912H   LINE      ---      ---       #49
      01000914H   LINE      ---      ---       #52
      01000923H   LINE      ---      ---       #53
      01000923H   LINE      ---      ---       #54
      01000929H   LINE      ---      ---       #55
      0100092BH   LINE      ---      ---       #56
      0100092BH   LINE      ---      ---       #57
      0100092DH   LINE      ---      ---       #58
      01000933H   LINE      ---      ---       #59
      01000935H   LINE      ---      ---       #60
      01000935H   LINE      ---      ---       #61
      01000937H   LINE      ---      ---       #62
      0100093DH   LINE      ---      ---       #63
      0100093FH   LINE      ---      ---       #64
      0100093FH   LINE      ---      ---       #65
      01000941H   LINE      ---      ---       #66
      01000947H   LINE      ---      ---       #67
      01000949H   LINE      ---      ---       #68
      01000949H   LINE      ---      ---       #69
      00000007H   SYMBOL    DATA     CHAR      channelCode
      ---         BLOCKEND  ---      ---       LVL=0

      01000020H   BLOCK     CODE     ---       LVL=0
      01000020H   LINE      ---      ---       #74
      01000020H   LINE      ---      ---       #76
      01000022H   LINE      ---      ---       #86
      ---         BLOCKEND  ---      ---       LVL=0

      01000799H   BLOCK     CODE     ---       LVL=0
      01000799H   LINE      ---      ---       #88
      01000799H   LINE      ---      ---       #89
      0100079FH   LINE      ---      ---       #90
      010007A3H   LINE      ---      ---       #91
      010007A5H   LINE      ---      ---       #92
      ---         BLOCKEND  ---      ---       LVL=0

      01000952H   BLOCK     CODE     ---       LVL=0
      01000952H   LINE      ---      ---       #96
      01000954H   LINE      ---      ---       #97
      0100095AH   LINE      ---      ---       #98
      0100095FH   LINE      ---      ---       #99
      01000961H   LINE      ---      ---       #100
      01000963H   LINE      ---      ---       #101
      01000965H   LINE      ---      ---       #102
      0100096DH   LINE      ---      ---       #104
      0100096DH   LINE      ---      ---       #105
      0100096FH   LINE      ---      ---       #106
      01000971H   LINE      ---      ---       #107
      01000973H   LINE      ---      ---       #108
      01000979H   LINE      ---      ---       #109
      01000980H   LINE      ---      ---       #110
      01000982H   LINE      ---      ---       #111
LX51 LINKER/LOCATER V4.66.41.0                                                        03/18/2016  11:02:42  PAGE 37


      01000984H   LINE      ---      ---       #112
      01000986H   LINE      ---      ---       #113
      0100098CH   LINE      ---      ---       #114
      0100098EH   LINE      ---      ---       #115
      00000044H   SYMBOL    DATA     CHAR      modeCode
      ---         BLOCKEND  ---      ---       LVL=0

      01000997H   BLOCK     CODE     ---       LVL=0
      01000997H   LINE      ---      ---       #119
      01000999H   LINE      ---      ---       #120
      0100099EH   LINE      ---      ---       #121
      010009A0H   LINE      ---      ---       #122
      010009A6H   LINE      ---      ---       #123
      010009ADH   LINE      ---      ---       #124
      010009AFH   LINE      ---      ---       #125
      010009B5H   LINE      ---      ---       #126
      010009B7H   LINE      ---      ---       #127
      00000044H   SYMBOL    DATA     CHAR      modeCode
      ---         BLOCKEND  ---      ---       LVL=0

      01000619H   BLOCK     CODE     ---       LVL=0
      01000619H   LINE      ---      ---       #132
      00000044H   SYMBOL    DATA     ---       command
      0100061FH   BLOCK     CODE     NEAR LAB  LVL=1
      0100061FH   LINE      ---      ---       #133
      01000625H   LINE      ---      ---       #134
      01000637H   LINE      ---      ---       #135
      01000654H   LINE      ---      ---       #136
      0100065CH   LINE      ---      ---       #137
      0100065EH   LINE      ---      ---       #138
      01000666H   LINE      ---      ---       #139
      0100066EH   LINE      ---      ---       #140
      01000680H   LINE      ---      ---       #141
      00000047H   SYMBOL    DATA     ---       flashEndAddress
      0200F0C8H   SYMBOL    XDATA    ---       uuidString
      ---         BLOCKEND  CODE     ---       LVL=1
      ---         BLOCKEND  CODE     ---       LVL=0

      ---         MODULE    ---      ---       FLASHHANDLER
      00000036H   PUBLIC    DATA     ---       MagicMemory
      000000E0H   PUBLIC    IDATA    ---       WLBuf
      01000B7EH   PUBLIC    CODE     ---       _FLASH_Erase
      01000A5CH   PUBLIC    CODE     ---       _FLASH_Prog
      010009C5H   PUBLIC    CODE     ---       _FLASH_Ready
      010009C0H   PUBLIC    CODE     ---       FLASH_Erase_Abort
      000000A0H.5 SFRSYM    DATA     BIT       KEEPX
      000000B0H   SFRSYM    DATA     BYTE      P3_DATA
      000000FAH   SFRSYM    DATA     BYTE      CCU6_CC60RL
      000000DBH   SFRSYM    DATA     BYTE      CAN_DATA0
      000000A0H.6 SFRSYM    DATA     BIT       KEEPY
      000000C1H   SFRSYM    DATA     BYTE      T21_T2MOD
      000000C0H   SFRSYM    DATA     BYTE      T21_T2CON
      000000C8H   SFRSYM    DATA     BYTE      P4_DATA
      000000FCH   SFRSYM    DATA     BYTE      CCU6_CC61RL
      000000DCH   SFRSYM    DATA     BYTE      CAN_DATA1
      000000D3H   SFRSYM    DATA     BYTE      ADC_EVINPR
      000000A0H.7 SFRSYM    DATA     BIT       KEEPZ
      000000C9H   SFRSYM    DATA     BYTE      UART1_SBUF
      00000092H   SFRSYM    DATA     BYTE      P5_DATA
      000000FEH   SFRSYM    DATA     BYTE      CCU6_CC62RL
      000000DDH   SFRSYM    DATA     BYTE      CAN_DATA2
      000000DAH   SFRSYM    DATA     BYTE      CAN_ADH
      000000C4H   SFRSYM    DATA     WORD      T2_T2LH
      0000009AH   SFRSYM    DATA     BYTE      CCU6_CC63RL
      000000DEH   SFRSYM    DATA     BYTE      CAN_DATA3
LX51 LINKER/LOCATER V4.66.41.0                                                        03/18/2016  11:02:42  PAGE 38


      000000D2H   SFRSYM    DATA     BYTE      ADC_EVINSR
      000000D0H.6 SFRSYM    DATA     BIT       AC
      000000C8H   SFRSYM    DATA     BYTE      UART1_SCON
      000000D9H   SFRSYM    DATA     BYTE      CAN_ADL
      000000A8H.7 SFRSYM    DATA     BIT       EA
      000000CAH   SFRSYM    DATA     BYTE      ADC_CRCR1
      000000FDH   SFRSYM    DATA     BYTE      CCU6_MODCTRH
      000000B2H   SFRSYM    DATA     BYTE      MDU_MD0
      000000BEH   SFRSYM    DATA     BYTE      BG
      000000B3H   SFRSYM    DATA     BYTE      MDU_MD1
      000000BCH   SFRSYM    DATA     BYTE      NMISR
      000000B4H   SFRSYM    DATA     BYTE      MDU_MD2
      000000FCH   SFRSYM    DATA     BYTE      CCU6_MODCTRL
      000000A0H.1 SFRSYM    DATA     BIT       ERROR
      000000B5H   SFRSYM    DATA     BYTE      MDU_MD3
      000000B6H   SFRSYM    DATA     BYTE      MDU_MD4
      000000A8H   SFRSYM    DATA     BYTE      IEN0
      000000B3H   SFRSYM    DATA     BYTE      ID
      000000E8H   SFRSYM    DATA     BIT       EADC
      000000B7H   SFRSYM    DATA     BYTE      MDU_MD5
      000000E8H   SFRSYM    DATA     BYTE      IEN1
      000000A7H   SFRSYM    DATA     BYTE      CCU6_CMPMODIFH
      00000080H   SFRSYM    DATA     BIT       P0_0
      000000B1H   SFRSYM    DATA     BYTE      MDU_MDUCON
      000000CCH   SFRSYM    DATA     BYTE      ADC_CRMR1
      00000090H   SFRSYM    DATA     BIT       P1_0
      00000080H.1 SFRSYM    DATA     BIT       P0_1
      000000A3H   SFRSYM    DATA     BYTE      CCU6_PAGE
      000000A0H   SFRSYM    DATA     BIT       P2_0
      00000090H.1 SFRSYM    DATA     BIT       P1_1
      00000080H.2 SFRSYM    DATA     BIT       P0_2
      0000008FH   SFRSYM    DATA     BYTE      SYSCON0
      000000B7H   SFRSYM    DATA     BYTE      MODPISEL1
      000000A6H   SFRSYM    DATA     BYTE      CCU6_CMPMODIFL
      000000B0H   SFRSYM    DATA     BIT       P3_0
      000000A0H.1 SFRSYM    DATA     BIT       P2_1
      00000090H.2 SFRSYM    DATA     BIT       P1_2
      00000080H.3 SFRSYM    DATA     BIT       P0_3
      000000BAH   SFRSYM    DATA     BYTE      MODPISEL2
      000000F9H   SFRSYM    DATA     BYTE      IPH1
      0000009BH   SFRSYM    DATA     BYTE      CCU6_MCMOUTH
      000000CBH   SFRSYM    DATA     BYTE      ADC_CRPR1
      000000C8H   SFRSYM    DATA     BIT       P4_0
      000000B0H.1 SFRSYM    DATA     BIT       P3_1
      000000A0H.2 SFRSYM    DATA     BIT       P2_2
      00000090H.3 SFRSYM    DATA     BIT       P1_3
      00000080H.4 SFRSYM    DATA     BIT       P0_4
      000000A2H   SFRSYM    DATA     BYTE      EO
      000000C8H.1 SFRSYM    DATA     BIT       P4_1
      000000B0H.2 SFRSYM    DATA     BIT       P3_2
      000000A0H.3 SFRSYM    DATA     BIT       P2_3
      00000090H.4 SFRSYM    DATA     BIT       P1_4
      00000080H.5 SFRSYM    DATA     BIT       P0_5
      000000BDH   SFRSYM    DATA     BYTE      FEAH
      000000D2H   SFRSYM    DATA     BYTE      ADC_QINR0
      000000D2H   SFRSYM    DATA     BYTE      ADC_QBUR0
      000000C8H.2 SFRSYM    DATA     BIT       P4_2
      000000B0H.3 SFRSYM    DATA     BIT       P3_3
      000000A0H.4 SFRSYM    DATA     BIT       P2_4
      00000090H.5 SFRSYM    DATA     BIT       P1_5
      00000080H.6 SFRSYM    DATA     BIT       P0_6
      000000C0H.6 SFRSYM    DATA     BIT       EXF2
      000000E8H.4 SFRSYM    DATA     BIT       ECCIP0
      0000009DH   SFRSYM    DATA     BYTE      CCU6_T12PRH
      000000C8H.3 SFRSYM    DATA     BIT       P4_3
LX51 LINKER/LOCATER V4.66.41.0                                                        03/18/2016  11:02:42  PAGE 39


      000000B0H.4 SFRSYM    DATA     BIT       P3_4
      000000A0H.5 SFRSYM    DATA     BIT       P2_5
      00000090H.6 SFRSYM    DATA     BIT       P1_6
      00000080H.7 SFRSYM    DATA     BIT       P0_7
      000000E8H.5 SFRSYM    DATA     BIT       ECCIP1
      000000B2H   SFRSYM    DATA     BYTE      MDU_MR0
      0000009FH   SFRSYM    DATA     BYTE      CCU6_T13PRH
      0000009AH   SFRSYM    DATA     BYTE      CCU6_MCMOUTL
      000000C8H.4 SFRSYM    DATA     BIT       P4_4
      000000B0H.5 SFRSYM    DATA     BIT       P3_5
      000000A0H.6 SFRSYM    DATA     BIT       P2_6
      00000090H.7 SFRSYM    DATA     BIT       P1_7
      000000E8H.6 SFRSYM    DATA     BIT       ECCIP2
      000000A8H.4 SFRSYM    DATA     BIT       ES
      000000CDH   SFRSYM    DATA     BYTE      UART1_FDSTEP
      000000B3H   SFRSYM    DATA     BYTE      MDU_MR1
      0000009DH   SFRSYM    DATA     BYTE      CCU6_IENH
      000000C8H.5 SFRSYM    DATA     BIT       P4_5
      000000B0H.6 SFRSYM    DATA     BIT       P3_6
      000000A0H.7 SFRSYM    DATA     BIT       P2_7
      000000F8H   SFRSYM    DATA     BIT       PADC
      000000E8H.7 SFRSYM    DATA     BIT       ECCIP3
      000000B4H   SFRSYM    DATA     BYTE      MDU_MR2
      000000B8H   SFRSYM    DATA     BYTE      IP
      000000BCH   SFRSYM    DATA     BYTE      FEAL
      000000C8H.6 SFRSYM    DATA     BIT       P4_6
      000000B0H.7 SFRSYM    DATA     BIT       P3_7
      000000B5H   SFRSYM    DATA     BYTE      MDU_MR3
      0000009CH   SFRSYM    DATA     BYTE      CCU6_T12PRL
      000000D8H   SFRSYM    DATA     BYTE      CAN_ADCON
      000000C8H.7 SFRSYM    DATA     BIT       P4_7
      000000FAH   SFRSYM    DATA     WORD      CCU6_CC60SRLH
      00000098H   SFRSYM    DATA     BIT       RI
      000000B6H   SFRSYM    DATA     BYTE      MDU_MR4
      0000009EH   SFRSYM    DATA     BYTE      CCU6_T13PRL
      000000FCH   SFRSYM    DATA     WORD      CCU6_CC61SRLH
      000000D0H.7 SFRSYM    DATA     BIT       CY
      000000B7H   SFRSYM    DATA     BYTE      MDU_MR5
      0000009CH   SFRSYM    DATA     BYTE      CCU6_IENL
      000000FEH   SFRSYM    DATA     WORD      CCU6_CC62SRLH
      00000098H.1 SFRSYM    DATA     BIT       TI
      000000FFH   SFRSYM    DATA     BYTE      CCU6_TRPCTRH
      0000009AH   SFRSYM    DATA     WORD      CCU6_CC63SRLH
      000000F8H.4 SFRSYM    DATA     BIT       PCCIP0
      000000FEH   SFRSYM    DATA     BYTE      CCU6_TRPCTRL
      000000CBH   SFRSYM    DATA     BYTE      ADC_RESRA0H
      000000F8H.5 SFRSYM    DATA     BIT       PCCIP1
      000000BDH   SFRSYM    DATA     BYTE      WDTWINB
      000000CDH   SFRSYM    DATA     BYTE      ADC_RESRA1H
      000000B8H.4 SFRSYM    DATA     BIT       PS
      000000F8H.6 SFRSYM    DATA     BIT       PCCIP2
      000000A0H.4 SFRSYM    DATA     BIT       DMAP
      000000ABH   SFRSYM    DATA     BYTE      SSC_CONH_O
      00000081H   SFRSYM    DATA     BYTE      SP
      0000009FH   SFRSYM    DATA     BYTE      CCU6_INPH
      000000BDH   SFRSYM    DATA     BYTE      BCON
      000000CFH   SFRSYM    DATA     BYTE      ADC_RESRA2H
      000000F8H.7 SFRSYM    DATA     BIT       PCCIP3
      000000ABH   SFRSYM    DATA     BYTE      SSC_CONH_P
      000000A4H   SFRSYM    DATA     BYTE      CCU6_PISEL2
      000000D3H   SFRSYM    DATA     BYTE      ADC_RESRA3H
      000000D0H.2 SFRSYM    DATA     BIT       OV
      000000CAH   SFRSYM    DATA     BYTE      ADC_RESRA0L
      0000009BH   SFRSYM    DATA     BYTE      CCU6_T12MSELH
      000000CCH   SFRSYM    DATA     BYTE      ADC_RESRA1L
LX51 LINKER/LOCATER V4.66.41.0                                                        03/18/2016  11:02:42  PAGE 40


      000000AAH   SFRSYM    DATA     BYTE      SSC_CONL_O
      000000AFH   SFRSYM    DATA     BYTE      SSC_BRH
      000000B6H   SFRSYM    DATA     BYTE      OSC_CON
      0000009EH   SFRSYM    DATA     BYTE      CCU6_INPL
      000000CEH   SFRSYM    DATA     BYTE      ADC_RESRA2L
      000000C3H   SFRSYM    DATA     BYTE      T21_RC2H
      000000AAH   SFRSYM    DATA     BYTE      SSC_CONL_P
      000000D2H   SFRSYM    DATA     BYTE      ADC_RESRA3L
      000000C0H.1 SFRSYM    DATA     BIT       C_T2
      000000B7H   SFRSYM    DATA     BYTE      PLL_CON
      000000A7H   SFRSYM    DATA     BYTE      CCU6_TCTR0H
      0000009AH   SFRSYM    DATA     BYTE      CCU6_T12MSELL
      000000A5H   SFRSYM    DATA     BYTE      CCU6_ISRH
      000000ADH   SFRSYM    DATA     BYTE      SSC_RBL
      000000AEH   SFRSYM    DATA     BYTE      SSC_BRL
      000000A5H   SFRSYM    DATA     BYTE      CCU6_ISSH
      000000CFH   SFRSYM    DATA     BYTE      ADC_ETRCR
      000000CAH   SFRSYM    DATA     WORD      ADC_RESR0LH
      000000C8H   SFRSYM    DATA     BIT       RI_1
      000000C2H   SFRSYM    DATA     BYTE      T21_RC2L
      000000FBH   SFRSYM    DATA     BYTE      CCU6_TCTR2H
      000000CCH   SFRSYM    DATA     WORD      ADC_RESR1LH
      000000ACH   SFRSYM    DATA     BYTE      SSC_TBL
      000000B4H   SFRSYM    DATA     BYTE      IRCON0
      000000CFH   SFRSYM    DATA     BYTE      ADC_Q0R0
      000000CEH   SFRSYM    DATA     WORD      ADC_RESR2LH
      000000C8H.1 SFRSYM    DATA     BIT       TI_1
      000000BDH   SFRSYM    DATA     BYTE      MODSUSP
      000000B5H   SFRSYM    DATA     BYTE      IRCON1
      0000009DH   SFRSYM    DATA     BYTE      CCU6_TCTR4H
      000000A6H   SFRSYM    DATA     BYTE      CCU6_TCTR0L
      000000A4H   SFRSYM    DATA     BYTE      CCU6_ISRL
      000000D2H   SFRSYM    DATA     WORD      ADC_RESR3LH
      000000E8H.1 SFRSYM    DATA     BIT       ESSC
      000000B4H   SFRSYM    DATA     BYTE      PMCON0
      000000B6H   SFRSYM    DATA     BYTE      IRCON2
      000000A4H   SFRSYM    DATA     BYTE      CCU6_ISSL
      000000DBH   SFRSYM    DATA     WORD      CAN_DATA01
      000000B5H   SFRSYM    DATA     BYTE      PMCON1
      00000080H   SFRSYM    DATA     BYTE      P0_PUDSEL
      000000F1H   SFRSYM    DATA     BYTE      MMCR
      000000B4H   SFRSYM    DATA     BYTE      IRCON3
      000000FAH   SFRSYM    DATA     BYTE      CCU6_TCTR2L
      00000099H   SFRSYM    DATA     BYTE      SBUF
      000000BBH   SFRSYM    DATA     BYTE      PMCON2
      00000087H   SFRSYM    DATA     BYTE      PCON
      00000090H   SFRSYM    DATA     BYTE      P1_PUDSEL
      000000F5H   SFRSYM    DATA     BYTE      MMDR
      000000B5H   SFRSYM    DATA     BYTE      IRCON4
      000000A0H   SFRSYM    DATA     BYTE      P2_PUDSEL
      0000009BH   SFRSYM    DATA     BYTE      CD_CORDXH
      0000009CH   SFRSYM    DATA     BYTE      CCU6_TCTR4L
      000000C4H   SFRSYM    DATA     WORD      T21_T2LH
      000000B0H.1 SFRSYM    DATA     BIT       IERR
      000000B0H   SFRSYM    DATA     BYTE      P3_PUDSEL
      0000009DH   SFRSYM    DATA     BYTE      CD_CORDYH
      000000DDH   SFRSYM    DATA     WORD      CAN_DATA23
      00000098H   SFRSYM    DATA     BYTE      SCON
      000000C8H   SFRSYM    DATA     BYTE      P4_PUDSEL
      0000009FH   SFRSYM    DATA     BYTE      CD_CORDZH
      00000089H   SFRSYM    DATA     BYTE      TMOD
      00000088H   SFRSYM    DATA     BYTE      TCON
      000000C5H   SFRSYM    DATA     BYTE      T2_T2H
      00000092H   SFRSYM    DATA     BYTE      P5_PUDSEL
      000000A6H   SFRSYM    DATA     BYTE      CCU6_PSLR
LX51 LINKER/LOCATER V4.66.41.0                                                        03/18/2016  11:02:42  PAGE 41


      000000B0H.2 SFRSYM    DATA     BIT       MDU_BSY
      0000009AH   SFRSYM    DATA     BYTE      CD_CORDXL
      0000009CH   SFRSYM    DATA     BYTE      CD_CORDYL
      000000BFH   SFRSYM    DATA     BYTE      WDTH
      0000009EH   SFRSYM    DATA     BYTE      CD_CORDZL
      000000B0H   SFRSYM    DATA     BIT       IRDY
      000000C4H   SFRSYM    DATA     BYTE      T2_T2L
      000000CAH   SFRSYM    DATA     BYTE      ADC_GLOBCTR
      000000F8H.1 SFRSYM    DATA     BIT       PSSC
      00000082H   SFRSYM    DATA     WORD      DPTR
      000000CCH   SFRSYM    DATA     BYTE      UART1_FDCON
      000000A7H   SFRSYM    DATA     BYTE      CCU6_MCMCTR
      000000BEH   SFRSYM    DATA     BYTE      WDTL
      000000B3H   SFRSYM    DATA     BYTE      XADDRH
      00000088H.1 SFRSYM    DATA     BIT       IE0
      000000FAH   SFRSYM    DATA     WORD      CCU6_T12LH
      00000088H.3 SFRSYM    DATA     BIT       IE1
      000000FCH   SFRSYM    DATA     WORD      CCU6_T13LH
      00000086H   SFRSYM    DATA     BYTE      P0_DIR
      000000F2H   SFRSYM    DATA     BYTE      MMSR
      00000091H   SFRSYM    DATA     BYTE      P1_DIR
      000000F0H   SFRSYM    DATA     BYTE      B
      000000CAH   SFRSYM    DATA     BYTE      ADC_RCR0
      000000A1H   SFRSYM    DATA     BYTE      P2_DIR
      000000CBH   SFRSYM    DATA     BYTE      ADC_RCR1
      000000C2H   SFRSYM    DATA     WORD      T2_RC2LH
      000000B1H   SFRSYM    DATA     BYTE      P3_DIR
      000000F3H   SFRSYM    DATA     BYTE      MMBPCR
      000000CCH   SFRSYM    DATA     BYTE      ADC_RCR2
      000000C0H   SFRSYM    DATA     BIT       CP_RL2
      000000C9H   SFRSYM    DATA     BYTE      P4_DIR
      000000CDH   SFRSYM    DATA     BYTE      ADC_RCR3
      000000CEH   SFRSYM    DATA     BYTE      UART1_FDRES
      000000B2H   SFRSYM    DATA     BYTE      PORT_PAGE
      00000093H   SFRSYM    DATA     BYTE      P5_DIR
      000000BBH   SFRSYM    DATA     BYTE      NMICON
      000000FAH   SFRSYM    DATA     WORD      CCU6_CC60RLH
      000000D1H   SFRSYM    DATA     BYTE      ADC_PAGE
      000000E0H   SFRSYM    DATA     BYTE      ACC
      000000FCH   SFRSYM    DATA     WORD      CCU6_CC61RLH
      000000EAH   SFRSYM    DATA     BYTE      FDSTEP
      000000A1H   SFRSYM    DATA     BYTE      CD_CON
      000000FEH   SFRSYM    DATA     WORD      CCU6_CC62RLH
      000000A8H.1 SFRSYM    DATA     BIT       ET0
      000000A9H   SFRSYM    DATA     BYTE      SSC_PISEL
      000000F7H   SFRSYM    DATA     BYTE      HWBPDR
      000000CBH   SFRSYM    DATA     BYTE      ADC_GLOBSTR
      0000009AH   SFRSYM    DATA     WORD      CCU6_CC63RLH
      00000088H.5 SFRSYM    DATA     BIT       TF0
      000000A8H.3 SFRSYM    DATA     BIT       ET1
      000000F8H   SFRSYM    DATA     BYTE      IP1
      000000CDH   SFRSYM    DATA     BYTE      ADC_QMR0
      00000088H.7 SFRSYM    DATA     BIT       TF1
      000000A8H.5 SFRSYM    DATA     BIT       ET2
      000000C0H.7 SFRSYM    DATA     BIT       TF2
      00000098H.2 SFRSYM    DATA     BIT       RB8
      0000008CH   SFRSYM    DATA     BYTE      TH0
      000000D9H   SFRSYM    DATA     WORD      CAN_ADLH
      00000088H   SFRSYM    DATA     BIT       IT0
      000000A8H   SFRSYM    DATA     BIT       EX0
      0000008DH   SFRSYM    DATA     BYTE      TH1
      000000CDH   SFRSYM    DATA     BYTE      ADC_LCBR
      00000088H.2 SFRSYM    DATA     BIT       IT1
      00000098H.3 SFRSYM    DATA     BIT       TB8
      000000A8H.2 SFRSYM    DATA     BIT       EX1
LX51 LINKER/LOCATER V4.66.41.0                                                        03/18/2016  11:02:42  PAGE 42


      000000C1H   SFRSYM    DATA     BYTE      T2_T2MOD
      000000C0H   SFRSYM    DATA     BYTE      T2_T2CON
      000000FBH   SFRSYM    DATA     BYTE      CCU6_CC60SRH
      000000D0H   SFRSYM    DATA     BIT       P
      000000E8H.2 SFRSYM    DATA     BIT       EX2
      000000A5H   SFRSYM    DATA     BYTE      CCU6_T12DTCH
      000000FDH   SFRSYM    DATA     BYTE      CCU6_CC61SRH
      000000CAH   SFRSYM    DATA     BYTE      ADC_CHCTR0
      00000098H.7 SFRSYM    DATA     BIT       SM0
      0000008AH   SFRSYM    DATA     BYTE      TL0
      000000FFH   SFRSYM    DATA     BYTE      CCU6_CC62SRH
      000000CEH   SFRSYM    DATA     BYTE      ADC_QSR0
      000000CBH   SFRSYM    DATA     BYTE      ADC_CHCTR1
      00000098H.6 SFRSYM    DATA     BIT       SM1
      000000BBH   SFRSYM    DATA     BYTE      WDTCON
      0000008BH   SFRSYM    DATA     BYTE      TL1
      0000009BH   SFRSYM    DATA     BYTE      CCU6_CC63SRH
      000000CCH   SFRSYM    DATA     BYTE      ADC_CHCTR2
      00000098H.5 SFRSYM    DATA     BIT       SM2
      000000FAH   SFRSYM    DATA     BYTE      CCU6_CC60SRL
      000000CDH   SFRSYM    DATA     BYTE      ADC_CHCTR3
      000000A4H   SFRSYM    DATA     BYTE      CCU6_T12DTCL
      000000FCH   SFRSYM    DATA     BYTE      CCU6_CC61SRL
      000000CEH   SFRSYM    DATA     BYTE      ADC_CHCTR4
      000000B8H.1 SFRSYM    DATA     BIT       PT0
      000000BCH   SFRSYM    DATA     BYTE      WDTREL
      000000BBH   SFRSYM    DATA     BYTE      PASSWD
      000000FEH   SFRSYM    DATA     BYTE      CCU6_CC62SRL
      000000CFH   SFRSYM    DATA     BYTE      ADC_CHCTR5
      000000D0H.3 SFRSYM    DATA     BIT       RS0
      000000B8H.3 SFRSYM    DATA     BIT       PT1
      0000009AH   SFRSYM    DATA     BYTE      CCU6_CC63SRL
      000000D2H   SFRSYM    DATA     BYTE      ADC_CHCTR6
      00000088H.4 SFRSYM    DATA     BIT       TR0
      000000D0H.4 SFRSYM    DATA     BIT       RS1
      000000B8H.5 SFRSYM    DATA     BIT       PT2
      000000A0H   SFRSYM    DATA     BIT       CD_BSY
      000000D3H   SFRSYM    DATA     BYTE      ADC_CHCTR7
      00000088H.6 SFRSYM    DATA     BIT       TR1
      000000A0H.2 SFRSYM    DATA     BIT       EOC
      0000009DH   SFRSYM    DATA     BYTE      CCU6_ISH
      000000CEH   SFRSYM    DATA     BYTE      ADC_INPCR0
      000000C0H.2 SFRSYM    DATA     BIT       TR2
      000000B8H   SFRSYM    DATA     BIT       PX0
      000000CBH   SFRSYM    DATA     BYTE      UART1_BG
      00000080H   SFRSYM    DATA     BYTE      P0_ALTSEL0
      000000F6H   SFRSYM    DATA     BYTE      HWBPSR
      000000B8H.2 SFRSYM    DATA     BIT       PX1
      00000090H   SFRSYM    DATA     BYTE      P1_ALTSEL0
      00000086H   SFRSYM    DATA     BYTE      P0_ALTSEL1
      000000F8H.2 SFRSYM    DATA     BIT       PX2
      00000091H   SFRSYM    DATA     BYTE      P1_ALTSEL1
      000000FFH   SFRSYM    DATA     BYTE      CCU6_CMPSTATH
      000000B0H   SFRSYM    DATA     BYTE      P3_ALTSEL0
      0000009CH   SFRSYM    DATA     BYTE      CCU6_ISL
      000000CEH   SFRSYM    DATA     BYTE      ADC_VFCR
      000000C8H   SFRSYM    DATA     BYTE      P4_ALTSEL0
      000000B1H   SFRSYM    DATA     BYTE      P3_ALTSEL1
      00000083H   SFRSYM    DATA     BYTE      DPH
      000000C8H.2 SFRSYM    DATA     BIT       RB8_1
      00000092H   SFRSYM    DATA     BYTE      P5_ALTSEL0
      000000C9H   SFRSYM    DATA     BYTE      P4_ALTSEL1
      00000093H   SFRSYM    DATA     BYTE      P5_ALTSEL1
      00000086H   SFRSYM    DATA     BYTE      P0_PUDEN
      000000FEH   SFRSYM    DATA     BYTE      CCU6_CMPSTATL
LX51 LINKER/LOCATER V4.66.41.0                                                        03/18/2016  11:02:42  PAGE 43


      000000C8H.3 SFRSYM    DATA     BIT       TB8_1
      000000A0H.3 SFRSYM    DATA     BIT       INT_EN
      00000091H   SFRSYM    DATA     BYTE      P1_PUDEN
      000000CBH   SFRSYM    DATA     BYTE      ADC_RESR0H
      000000CCH   SFRSYM    DATA     BYTE      ADC_PRAR
      000000A1H   SFRSYM    DATA     BYTE      P2_PUDEN
      000000B3H   SFRSYM    DATA     BYTE      MODPISEL
      00000082H   SFRSYM    DATA     BYTE      DPL
      000000CDH   SFRSYM    DATA     BYTE      ADC_RESR1H
      000000C8H.7 SFRSYM    DATA     BIT       SM0_1
      000000B1H   SFRSYM    DATA     BYTE      P3_PUDEN
      000000B9H   SFRSYM    DATA     BYTE      IPH
      000000CFH   SFRSYM    DATA     BYTE      ADC_RESR2H
      0000009CH   SFRSYM    DATA     WORD      CCU6_T12PRLH
      000000C8H.6 SFRSYM    DATA     BIT       SM1_1
      000000C9H   SFRSYM    DATA     BYTE      P4_PUDEN
      000000E9H   SFRSYM    DATA     BYTE      MMCR2
      000000D3H   SFRSYM    DATA     BYTE      ADC_RESR3H
      000000CBH   SFRSYM    DATA     BYTE      ADC_CHINCR
      0000009EH   SFRSYM    DATA     WORD      CCU6_T13PRLH
      000000C8H.5 SFRSYM    DATA     BIT       SM2_1
      000000C0H.3 SFRSYM    DATA     BIT       EXEN2
      00000093H   SFRSYM    DATA     BYTE      P5_PUDEN
      000000CAH   SFRSYM    DATA     BYTE      ADC_RESR0L
      000000CCH   SFRSYM    DATA     BYTE      ADC_RESR1L
      00000098H.4 SFRSYM    DATA     BIT       REN
      000000CEH   SFRSYM    DATA     BYTE      ADC_RESR2L
      000000CAH   SFRSYM    DATA     BYTE      ADC_CHINFR
      000000C5H   SFRSYM    DATA     BYTE      T21_T2H
      0000009FH   SFRSYM    DATA     BYTE      CCU6_MCMOUTSH
      000000D2H   SFRSYM    DATA     BYTE      ADC_RESR3L
      000000A0H   SFRSYM    DATA     BYTE      CD_STATC
      000000E8H.3 SFRSYM    DATA     BIT       EXM
      000000C4H   SFRSYM    DATA     BYTE      T21_T2L
      000000BFH   SFRSYM    DATA     BYTE      SCU_PAGE
      0000009FH   SFRSYM    DATA     BYTE      CCU6_PISEL0H
      0000009EH   SFRSYM    DATA     BYTE      CCU6_MCMOUTSL
      000000E9H   SFRSYM    DATA     BYTE      FDCON
      000000B0H   SFRSYM    DATA     BYTE      MDU_MDUSTAT
      000000CAH   SFRSYM    DATA     WORD      ADC_RESRA0LH
      000000CCH   SFRSYM    DATA     WORD      ADC_RESRA1LH
      000000E9H   SFRSYM    DATA     BYTE      MISC_CON
      0000009EH   SFRSYM    DATA     BYTE      CCU6_PISEL0L
      000000CEH   SFRSYM    DATA     WORD      ADC_RESRA2LH
      000000CDH   SFRSYM    DATA     BYTE      ADC_CHINPR
      000000D2H   SFRSYM    DATA     WORD      ADC_RESRA3LH
      000000BAH   SFRSYM    DATA     BYTE      CMCON
      000000CAH   SFRSYM    DATA     BYTE      UART1_BCON
      000000FBH   SFRSYM    DATA     BYTE      CCU6_T12H
      000000CFH   SFRSYM    DATA     BYTE      ADC_EVINCR
      000000CCH   SFRSYM    DATA     BYTE      ADC_CHINSR
      00000080H   SFRSYM    DATA     BYTE      P0_OD
      000000BEH   SFRSYM    DATA     BYTE      COCON
      000000FDH   SFRSYM    DATA     BYTE      CCU6_T13H
      000000C2H   SFRSYM    DATA     WORD      T21_RC2LH
      00000090H   SFRSYM    DATA     BYTE      P1_OD
      000000D0H.5 SFRSYM    DATA     BIT       F0
      000000F8H.3 SFRSYM    DATA     BIT       PXM
      000000EBH   SFRSYM    DATA     BYTE      MMWR1
      000000EBH   SFRSYM    DATA     BYTE      FDRES
      000000CEH   SFRSYM    DATA     BYTE      ADC_EVINFR
      000000C8H.4 SFRSYM    DATA     BIT       REN_1
      000000D0H.1 SFRSYM    DATA     BIT       F1
      000000C3H   SFRSYM    DATA     BYTE      T2_RC2H
      000000B0H   SFRSYM    DATA     BYTE      P3_OD
LX51 LINKER/LOCATER V4.66.41.0                                                        03/18/2016  11:02:42  PAGE 44


      000000ECH   SFRSYM    DATA     BYTE      MMWR2
      000000FAH   SFRSYM    DATA     BYTE      CCU6_T12L
      000000C8H   SFRSYM    DATA     BYTE      P4_OD
      000000FCH   SFRSYM    DATA     BYTE      CCU6_T13L
      00000092H   SFRSYM    DATA     BYTE      P5_OD
      000000B7H   SFRSYM    DATA     BYTE      EXICON0
      000000F4H   SFRSYM    DATA     BYTE      MMICR
      000000BAH   SFRSYM    DATA     BYTE      EXICON1
      000000C2H   SFRSYM    DATA     BYTE      T2_RC2L
      000000D0H   SFRSYM    DATA     BYTE      PSW
      000000FBH   SFRSYM    DATA     BYTE      CCU6_CC60RH
      00000080H   SFRSYM    DATA     BYTE      P0_DATA
      000000FDH   SFRSYM    DATA     BYTE      CCU6_CC61RH
      00000090H   SFRSYM    DATA     BYTE      P1_DATA
      000000FFH   SFRSYM    DATA     BYTE      CCU6_CC62RH
      000000A0H   SFRSYM    DATA     BYTE      P2_DATA
      0000009BH   SFRSYM    DATA     BYTE      CCU6_CC63RH

      010009C0H   BLOCK     CODE     ---       LVL=0
      010009C0H   LINE      ---      ---       #75
      010009C0H   LINE      ---      ---       #76
      010009C0H   LINE      ---      ---       #78
      010009C3H   LINE      ---      ---       #85
      010009C4H   LINE      ---      ---       #86
      ---         BLOCKEND  ---      ---       LVL=0

      010009C5H   BLOCK     CODE     ---       LVL=0
      010009C5H   LINE      ---      ---       #90
      010009C5H   LINE      ---      ---       #91
      010009C5H   LINE      ---      ---       #92
      010009C6H   LINE      ---      ---       #94
      00000007H   SYMBOL    DATA     BYTE      BankNum
      ---         BLOCKEND  ---      ---       LVL=0

      01000A5CH   BLOCK     CODE     ---       LVL=0
      01000A5CH   LINE      ---      ---       #113
      01000A5CH   LINE      ---      ---       #114
      00000006H   SYMBOL    DATA     ---       WLAddress
      01000A5CH   BLOCK     CODE     NEAR LAB  LVL=1
      01000A5CH   LINE      ---      ---       #126
      01000A60H   LINE      ---      ---       #129
      01000A64H   LINE      ---      ---       #131
      01000A66H   LINE      ---      ---       #132
      01000A69H   LINE      ---      ---       #136
      01000A6CH   LINE      ---      ---       #145
      01000A6EH   LINE      ---      ---       #146
      01000A70H   LINE      ---      ---       #147
      01000A73H   LINE      ---      ---       #152
      00000020H.2 SYMBOL    BIT      BIT       success
      ---         BLOCKEND  CODE     ---       LVL=1
      ---         BLOCKEND  CODE     ---       LVL=0

      01000B7EH   BLOCK     CODE     ---       LVL=0
      01000B7EH   LINE      ---      ---       #161
      01000B7EH   LINE      ---      ---       #163
      00000006H   SYMBOL    DATA     WORD      DFlash0Sector
      00000004H   SYMBOL    DATA     WORD      DFlash1Sector
      01000B7EH   BLOCK     CODE     NEAR LAB  LVL=1
      01000B7EH   LINE      ---      ---       #176
      01000B82H   LINE      ---      ---       #178
      01000B86H   LINE      ---      ---       #186
      01000B8AH   LINE      ---      ---       #187
      01000B8DH   LINE      ---      ---       #188
      01000B91H   LINE      ---      ---       #189
      01000B94H   LINE      ---      ---       #191
LX51 LINKER/LOCATER V4.66.41.0                                                        03/18/2016  11:02:42  PAGE 45


      01000B98H   LINE      ---      ---       #192
      01000B9AH   LINE      ---      ---       #193
      01000B9CH   LINE      ---      ---       #196
      01000B9EH   LINE      ---      ---       #197
      01000BA1H   LINE      ---      ---       #201
      01000BA4H   LINE      ---      ---       #213
      01000BA6H   LINE      ---      ---       #214
      01000BA8H   LINE      ---      ---       #215
      01000BABH   LINE      ---      ---       #217
      00000020H.2 SYMBOL    BIT      BIT       success
      00000054H   SYMBOL    DATA     ---       P1
      00000056H   SYMBOL    DATA     ---       P2
      ---         BLOCKEND  CODE     ---       LVL=1
      ---         BLOCKEND  CODE     ---       LVL=0

      ---         MODULE    ---      ---       IO
      010005D9H   PUBLIC    CODE     ---       IO_vInit
      000000A0H.5 SFRSYM    DATA     BIT       KEEPX
      000000B0H   SFRSYM    DATA     BYTE      P3_DATA
      000000FAH   SFRSYM    DATA     BYTE      CCU6_CC60RL
      000000DBH   SFRSYM    DATA     BYTE      CAN_DATA0
      000000A0H.6 SFRSYM    DATA     BIT       KEEPY
      000000C1H   SFRSYM    DATA     BYTE      T21_T2MOD
      000000C0H   SFRSYM    DATA     BYTE      T21_T2CON
      000000C8H   SFRSYM    DATA     BYTE      P4_DATA
      000000FCH   SFRSYM    DATA     BYTE      CCU6_CC61RL
      000000DCH   SFRSYM    DATA     BYTE      CAN_DATA1
      000000D3H   SFRSYM    DATA     BYTE      ADC_EVINPR
      000000A0H.7 SFRSYM    DATA     BIT       KEEPZ
      000000C9H   SFRSYM    DATA     BYTE      UART1_SBUF
      00000092H   SFRSYM    DATA     BYTE      P5_DATA
      000000FEH   SFRSYM    DATA     BYTE      CCU6_CC62RL
      000000DDH   SFRSYM    DATA     BYTE      CAN_DATA2
      000000DAH   SFRSYM    DATA     BYTE      CAN_ADH
      000000C4H   SFRSYM    DATA     WORD      T2_T2LH
      0000009AH   SFRSYM    DATA     BYTE      CCU6_CC63RL
      000000DEH   SFRSYM    DATA     BYTE      CAN_DATA3
      000000D2H   SFRSYM    DATA     BYTE      ADC_EVINSR
      000000D0H.6 SFRSYM    DATA     BIT       AC
      000000C8H   SFRSYM    DATA     BYTE      UART1_SCON
      000000D9H   SFRSYM    DATA     BYTE      CAN_ADL
      000000A8H.7 SFRSYM    DATA     BIT       EA
      000000CAH   SFRSYM    DATA     BYTE      ADC_CRCR1
      000000FDH   SFRSYM    DATA     BYTE      CCU6_MODCTRH
      000000B2H   SFRSYM    DATA     BYTE      MDU_MD0
      000000BEH   SFRSYM    DATA     BYTE      BG
      000000B3H   SFRSYM    DATA     BYTE      MDU_MD1
      000000BCH   SFRSYM    DATA     BYTE      NMISR
      000000B4H   SFRSYM    DATA     BYTE      MDU_MD2
      000000FCH   SFRSYM    DATA     BYTE      CCU6_MODCTRL
      000000A0H.1 SFRSYM    DATA     BIT       ERROR
      000000B5H   SFRSYM    DATA     BYTE      MDU_MD3
      000000B6H   SFRSYM    DATA     BYTE      MDU_MD4
      000000A8H   SFRSYM    DATA     BYTE      IEN0
      000000B3H   SFRSYM    DATA     BYTE      ID
      000000E8H   SFRSYM    DATA     BIT       EADC
      000000B7H   SFRSYM    DATA     BYTE      MDU_MD5
      000000E8H   SFRSYM    DATA     BYTE      IEN1
      000000A7H   SFRSYM    DATA     BYTE      CCU6_CMPMODIFH
      00000080H   SFRSYM    DATA     BIT       P0_0
      000000B1H   SFRSYM    DATA     BYTE      MDU_MDUCON
      000000CCH   SFRSYM    DATA     BYTE      ADC_CRMR1
      00000090H   SFRSYM    DATA     BIT       P1_0
      00000080H.1 SFRSYM    DATA     BIT       P0_1
      000000A3H   SFRSYM    DATA     BYTE      CCU6_PAGE
LX51 LINKER/LOCATER V4.66.41.0                                                        03/18/2016  11:02:42  PAGE 46


      000000A0H   SFRSYM    DATA     BIT       P2_0
      00000090H.1 SFRSYM    DATA     BIT       P1_1
      00000080H.2 SFRSYM    DATA     BIT       P0_2
      0000008FH   SFRSYM    DATA     BYTE      SYSCON0
      000000B7H   SFRSYM    DATA     BYTE      MODPISEL1
      000000A6H   SFRSYM    DATA     BYTE      CCU6_CMPMODIFL
      000000B0H   SFRSYM    DATA     BIT       P3_0
      000000A0H.1 SFRSYM    DATA     BIT       P2_1
      00000090H.2 SFRSYM    DATA     BIT       P1_2
      00000080H.3 SFRSYM    DATA     BIT       P0_3
      000000BAH   SFRSYM    DATA     BYTE      MODPISEL2
      000000F9H   SFRSYM    DATA     BYTE      IPH1
      0000009BH   SFRSYM    DATA     BYTE      CCU6_MCMOUTH
      000000CBH   SFRSYM    DATA     BYTE      ADC_CRPR1
      000000C8H   SFRSYM    DATA     BIT       P4_0
      000000B0H.1 SFRSYM    DATA     BIT       P3_1
      000000A0H.2 SFRSYM    DATA     BIT       P2_2
      00000090H.3 SFRSYM    DATA     BIT       P1_3
      00000080H.4 SFRSYM    DATA     BIT       P0_4
      000000A2H   SFRSYM    DATA     BYTE      EO
      000000C8H.1 SFRSYM    DATA     BIT       P4_1
      000000B0H.2 SFRSYM    DATA     BIT       P3_2
      000000A0H.3 SFRSYM    DATA     BIT       P2_3
      00000090H.4 SFRSYM    DATA     BIT       P1_4
      00000080H.5 SFRSYM    DATA     BIT       P0_5
      000000BDH   SFRSYM    DATA     BYTE      FEAH
      000000D2H   SFRSYM    DATA     BYTE      ADC_QINR0
      000000D2H   SFRSYM    DATA     BYTE      ADC_QBUR0
      000000C8H.2 SFRSYM    DATA     BIT       P4_2
      000000B0H.3 SFRSYM    DATA     BIT       P3_3
      000000A0H.4 SFRSYM    DATA     BIT       P2_4
      00000090H.5 SFRSYM    DATA     BIT       P1_5
      00000080H.6 SFRSYM    DATA     BIT       P0_6
      000000C0H.6 SFRSYM    DATA     BIT       EXF2
      000000E8H.4 SFRSYM    DATA     BIT       ECCIP0
      0000009DH   SFRSYM    DATA     BYTE      CCU6_T12PRH
      000000C8H.3 SFRSYM    DATA     BIT       P4_3
      000000B0H.4 SFRSYM    DATA     BIT       P3_4
      000000A0H.5 SFRSYM    DATA     BIT       P2_5
      00000090H.6 SFRSYM    DATA     BIT       P1_6
      00000080H.7 SFRSYM    DATA     BIT       P0_7
      000000E8H.5 SFRSYM    DATA     BIT       ECCIP1
      000000B2H   SFRSYM    DATA     BYTE      MDU_MR0
      0000009FH   SFRSYM    DATA     BYTE      CCU6_T13PRH
      0000009AH   SFRSYM    DATA     BYTE      CCU6_MCMOUTL
      000000C8H.4 SFRSYM    DATA     BIT       P4_4
      000000B0H.5 SFRSYM    DATA     BIT       P3_5
      000000A0H.6 SFRSYM    DATA     BIT       P2_6
      00000090H.7 SFRSYM    DATA     BIT       P1_7
      000000E8H.6 SFRSYM    DATA     BIT       ECCIP2
      000000A8H.4 SFRSYM    DATA     BIT       ES
      000000CDH   SFRSYM    DATA     BYTE      UART1_FDSTEP
      000000B3H   SFRSYM    DATA     BYTE      MDU_MR1
      0000009DH   SFRSYM    DATA     BYTE      CCU6_IENH
      000000C8H.5 SFRSYM    DATA     BIT       P4_5
      000000B0H.6 SFRSYM    DATA     BIT       P3_6
      000000A0H.7 SFRSYM    DATA     BIT       P2_7
      000000F8H   SFRSYM    DATA     BIT       PADC
      000000E8H.7 SFRSYM    DATA     BIT       ECCIP3
      000000B4H   SFRSYM    DATA     BYTE      MDU_MR2
      000000B8H   SFRSYM    DATA     BYTE      IP
      000000BCH   SFRSYM    DATA     BYTE      FEAL
      000000C8H.6 SFRSYM    DATA     BIT       P4_6
      000000B0H.7 SFRSYM    DATA     BIT       P3_7
      000000B5H   SFRSYM    DATA     BYTE      MDU_MR3
LX51 LINKER/LOCATER V4.66.41.0                                                        03/18/2016  11:02:42  PAGE 47


      0000009CH   SFRSYM    DATA     BYTE      CCU6_T12PRL
      000000D8H   SFRSYM    DATA     BYTE      CAN_ADCON
      000000C8H.7 SFRSYM    DATA     BIT       P4_7
      000000FAH   SFRSYM    DATA     WORD      CCU6_CC60SRLH
      00000098H   SFRSYM    DATA     BIT       RI
      000000B6H   SFRSYM    DATA     BYTE      MDU_MR4
      0000009EH   SFRSYM    DATA     BYTE      CCU6_T13PRL
      000000FCH   SFRSYM    DATA     WORD      CCU6_CC61SRLH
      000000D0H.7 SFRSYM    DATA     BIT       CY
      000000B7H   SFRSYM    DATA     BYTE      MDU_MR5
      0000009CH   SFRSYM    DATA     BYTE      CCU6_IENL
      000000FEH   SFRSYM    DATA     WORD      CCU6_CC62SRLH
      00000098H.1 SFRSYM    DATA     BIT       TI
      000000FFH   SFRSYM    DATA     BYTE      CCU6_TRPCTRH
      0000009AH   SFRSYM    DATA     WORD      CCU6_CC63SRLH
      000000F8H.4 SFRSYM    DATA     BIT       PCCIP0
      000000FEH   SFRSYM    DATA     BYTE      CCU6_TRPCTRL
      000000CBH   SFRSYM    DATA     BYTE      ADC_RESRA0H
      000000F8H.5 SFRSYM    DATA     BIT       PCCIP1
      000000BDH   SFRSYM    DATA     BYTE      WDTWINB
      000000CDH   SFRSYM    DATA     BYTE      ADC_RESRA1H
      000000B8H.4 SFRSYM    DATA     BIT       PS
      000000F8H.6 SFRSYM    DATA     BIT       PCCIP2
      000000A0H.4 SFRSYM    DATA     BIT       DMAP
      000000ABH   SFRSYM    DATA     BYTE      SSC_CONH_O
      00000081H   SFRSYM    DATA     BYTE      SP
      0000009FH   SFRSYM    DATA     BYTE      CCU6_INPH
      000000BDH   SFRSYM    DATA     BYTE      BCON
      000000CFH   SFRSYM    DATA     BYTE      ADC_RESRA2H
      000000F8H.7 SFRSYM    DATA     BIT       PCCIP3
      000000ABH   SFRSYM    DATA     BYTE      SSC_CONH_P
      000000A4H   SFRSYM    DATA     BYTE      CCU6_PISEL2
      000000D3H   SFRSYM    DATA     BYTE      ADC_RESRA3H
      000000D0H.2 SFRSYM    DATA     BIT       OV
      000000CAH   SFRSYM    DATA     BYTE      ADC_RESRA0L
      0000009BH   SFRSYM    DATA     BYTE      CCU6_T12MSELH
      000000CCH   SFRSYM    DATA     BYTE      ADC_RESRA1L
      000000AAH   SFRSYM    DATA     BYTE      SSC_CONL_O
      000000AFH   SFRSYM    DATA     BYTE      SSC_BRH
      000000B6H   SFRSYM    DATA     BYTE      OSC_CON
      0000009EH   SFRSYM    DATA     BYTE      CCU6_INPL
      000000CEH   SFRSYM    DATA     BYTE      ADC_RESRA2L
      000000C3H   SFRSYM    DATA     BYTE      T21_RC2H
      000000AAH   SFRSYM    DATA     BYTE      SSC_CONL_P
      000000D2H   SFRSYM    DATA     BYTE      ADC_RESRA3L
      000000C0H.1 SFRSYM    DATA     BIT       C_T2
      000000B7H   SFRSYM    DATA     BYTE      PLL_CON
      000000A7H   SFRSYM    DATA     BYTE      CCU6_TCTR0H
      0000009AH   SFRSYM    DATA     BYTE      CCU6_T12MSELL
      000000A5H   SFRSYM    DATA     BYTE      CCU6_ISRH
      000000ADH   SFRSYM    DATA     BYTE      SSC_RBL
      000000AEH   SFRSYM    DATA     BYTE      SSC_BRL
      000000A5H   SFRSYM    DATA     BYTE      CCU6_ISSH
      000000CFH   SFRSYM    DATA     BYTE      ADC_ETRCR
      000000CAH   SFRSYM    DATA     WORD      ADC_RESR0LH
      000000C8H   SFRSYM    DATA     BIT       RI_1
      000000C2H   SFRSYM    DATA     BYTE      T21_RC2L
      000000FBH   SFRSYM    DATA     BYTE      CCU6_TCTR2H
      000000CCH   SFRSYM    DATA     WORD      ADC_RESR1LH
      000000ACH   SFRSYM    DATA     BYTE      SSC_TBL
      000000B4H   SFRSYM    DATA     BYTE      IRCON0
      000000CFH   SFRSYM    DATA     BYTE      ADC_Q0R0
      000000CEH   SFRSYM    DATA     WORD      ADC_RESR2LH
      000000C8H.1 SFRSYM    DATA     BIT       TI_1
      000000BDH   SFRSYM    DATA     BYTE      MODSUSP
LX51 LINKER/LOCATER V4.66.41.0                                                        03/18/2016  11:02:42  PAGE 48


      000000B5H   SFRSYM    DATA     BYTE      IRCON1
      0000009DH   SFRSYM    DATA     BYTE      CCU6_TCTR4H
      000000A6H   SFRSYM    DATA     BYTE      CCU6_TCTR0L
      000000A4H   SFRSYM    DATA     BYTE      CCU6_ISRL
      000000D2H   SFRSYM    DATA     WORD      ADC_RESR3LH
      000000E8H.1 SFRSYM    DATA     BIT       ESSC
      000000B4H   SFRSYM    DATA     BYTE      PMCON0
      000000B6H   SFRSYM    DATA     BYTE      IRCON2
      000000A4H   SFRSYM    DATA     BYTE      CCU6_ISSL
      000000DBH   SFRSYM    DATA     WORD      CAN_DATA01
      000000B5H   SFRSYM    DATA     BYTE      PMCON1
      00000080H   SFRSYM    DATA     BYTE      P0_PUDSEL
      000000F1H   SFRSYM    DATA     BYTE      MMCR
      000000B4H   SFRSYM    DATA     BYTE      IRCON3
      000000FAH   SFRSYM    DATA     BYTE      CCU6_TCTR2L
      00000099H   SFRSYM    DATA     BYTE      SBUF
      000000BBH   SFRSYM    DATA     BYTE      PMCON2
      00000087H   SFRSYM    DATA     BYTE      PCON
      00000090H   SFRSYM    DATA     BYTE      P1_PUDSEL
      000000F5H   SFRSYM    DATA     BYTE      MMDR
      000000B5H   SFRSYM    DATA     BYTE      IRCON4
      000000A0H   SFRSYM    DATA     BYTE      P2_PUDSEL
      0000009BH   SFRSYM    DATA     BYTE      CD_CORDXH
      0000009CH   SFRSYM    DATA     BYTE      CCU6_TCTR4L
      000000C4H   SFRSYM    DATA     WORD      T21_T2LH
      000000B0H.1 SFRSYM    DATA     BIT       IERR
      000000B0H   SFRSYM    DATA     BYTE      P3_PUDSEL
      0000009DH   SFRSYM    DATA     BYTE      CD_CORDYH
      000000DDH   SFRSYM    DATA     WORD      CAN_DATA23
      00000098H   SFRSYM    DATA     BYTE      SCON
      000000C8H   SFRSYM    DATA     BYTE      P4_PUDSEL
      0000009FH   SFRSYM    DATA     BYTE      CD_CORDZH
      00000089H   SFRSYM    DATA     BYTE      TMOD
      00000088H   SFRSYM    DATA     BYTE      TCON
      000000C5H   SFRSYM    DATA     BYTE      T2_T2H
      00000092H   SFRSYM    DATA     BYTE      P5_PUDSEL
      000000A6H   SFRSYM    DATA     BYTE      CCU6_PSLR
      000000B0H.2 SFRSYM    DATA     BIT       MDU_BSY
      0000009AH   SFRSYM    DATA     BYTE      CD_CORDXL
      0000009CH   SFRSYM    DATA     BYTE      CD_CORDYL
      000000BFH   SFRSYM    DATA     BYTE      WDTH
      0000009EH   SFRSYM    DATA     BYTE      CD_CORDZL
      000000B0H   SFRSYM    DATA     BIT       IRDY
      000000C4H   SFRSYM    DATA     BYTE      T2_T2L
      000000CAH   SFRSYM    DATA     BYTE      ADC_GLOBCTR
      000000F8H.1 SFRSYM    DATA     BIT       PSSC
      000000CCH   SFRSYM    DATA     BYTE      UART1_FDCON
      000000A7H   SFRSYM    DATA     BYTE      CCU6_MCMCTR
      000000BEH   SFRSYM    DATA     BYTE      WDTL
      000000B3H   SFRSYM    DATA     BYTE      XADDRH
      00000088H.1 SFRSYM    DATA     BIT       IE0
      000000FAH   SFRSYM    DATA     WORD      CCU6_T12LH
      00000088H.3 SFRSYM    DATA     BIT       IE1
      000000FCH   SFRSYM    DATA     WORD      CCU6_T13LH
      00000086H   SFRSYM    DATA     BYTE      P0_DIR
      000000F2H   SFRSYM    DATA     BYTE      MMSR
      00000091H   SFRSYM    DATA     BYTE      P1_DIR
      000000F0H   SFRSYM    DATA     BYTE      B
      000000CAH   SFRSYM    DATA     BYTE      ADC_RCR0
      000000A1H   SFRSYM    DATA     BYTE      P2_DIR
      000000CBH   SFRSYM    DATA     BYTE      ADC_RCR1
      000000C2H   SFRSYM    DATA     WORD      T2_RC2LH
      000000B1H   SFRSYM    DATA     BYTE      P3_DIR
      000000F3H   SFRSYM    DATA     BYTE      MMBPCR
      000000CCH   SFRSYM    DATA     BYTE      ADC_RCR2
LX51 LINKER/LOCATER V4.66.41.0                                                        03/18/2016  11:02:42  PAGE 49


      000000C0H   SFRSYM    DATA     BIT       CP_RL2
      000000C9H   SFRSYM    DATA     BYTE      P4_DIR
      000000CDH   SFRSYM    DATA     BYTE      ADC_RCR3
      000000CEH   SFRSYM    DATA     BYTE      UART1_FDRES
      000000B2H   SFRSYM    DATA     BYTE      PORT_PAGE
      00000093H   SFRSYM    DATA     BYTE      P5_DIR
      000000BBH   SFRSYM    DATA     BYTE      NMICON
      000000FAH   SFRSYM    DATA     WORD      CCU6_CC60RLH
      000000D1H   SFRSYM    DATA     BYTE      ADC_PAGE
      000000E0H   SFRSYM    DATA     BYTE      ACC
      000000FCH   SFRSYM    DATA     WORD      CCU6_CC61RLH
      000000EAH   SFRSYM    DATA     BYTE      FDSTEP
      000000A1H   SFRSYM    DATA     BYTE      CD_CON
      000000FEH   SFRSYM    DATA     WORD      CCU6_CC62RLH
      000000A8H.1 SFRSYM    DATA     BIT       ET0
      000000A9H   SFRSYM    DATA     BYTE      SSC_PISEL
      000000F7H   SFRSYM    DATA     BYTE      HWBPDR
      000000CBH   SFRSYM    DATA     BYTE      ADC_GLOBSTR
      0000009AH   SFRSYM    DATA     WORD      CCU6_CC63RLH
      00000088H.5 SFRSYM    DATA     BIT       TF0
      000000A8H.3 SFRSYM    DATA     BIT       ET1
      000000F8H   SFRSYM    DATA     BYTE      IP1
      000000CDH   SFRSYM    DATA     BYTE      ADC_QMR0
      00000088H.7 SFRSYM    DATA     BIT       TF1
      000000A8H.5 SFRSYM    DATA     BIT       ET2
      000000C0H.7 SFRSYM    DATA     BIT       TF2
      00000098H.2 SFRSYM    DATA     BIT       RB8
      0000008CH   SFRSYM    DATA     BYTE      TH0
      000000D9H   SFRSYM    DATA     WORD      CAN_ADLH
      00000088H   SFRSYM    DATA     BIT       IT0
      000000A8H   SFRSYM    DATA     BIT       EX0
      0000008DH   SFRSYM    DATA     BYTE      TH1
      000000CDH   SFRSYM    DATA     BYTE      ADC_LCBR
      00000088H.2 SFRSYM    DATA     BIT       IT1
      00000098H.3 SFRSYM    DATA     BIT       TB8
      000000A8H.2 SFRSYM    DATA     BIT       EX1
      000000C1H   SFRSYM    DATA     BYTE      T2_T2MOD
      000000C0H   SFRSYM    DATA     BYTE      T2_T2CON
      000000FBH   SFRSYM    DATA     BYTE      CCU6_CC60SRH
      000000D0H   SFRSYM    DATA     BIT       P
      000000E8H.2 SFRSYM    DATA     BIT       EX2
      000000A5H   SFRSYM    DATA     BYTE      CCU6_T12DTCH
      000000FDH   SFRSYM    DATA     BYTE      CCU6_CC61SRH
      000000CAH   SFRSYM    DATA     BYTE      ADC_CHCTR0
      00000098H.7 SFRSYM    DATA     BIT       SM0
      0000008AH   SFRSYM    DATA     BYTE      TL0
      000000FFH   SFRSYM    DATA     BYTE      CCU6_CC62SRH
      000000CEH   SFRSYM    DATA     BYTE      ADC_QSR0
      000000CBH   SFRSYM    DATA     BYTE      ADC_CHCTR1
      00000098H.6 SFRSYM    DATA     BIT       SM1
      000000BBH   SFRSYM    DATA     BYTE      WDTCON
      0000008BH   SFRSYM    DATA     BYTE      TL1
      0000009BH   SFRSYM    DATA     BYTE      CCU6_CC63SRH
      000000CCH   SFRSYM    DATA     BYTE      ADC_CHCTR2
      00000098H.5 SFRSYM    DATA     BIT       SM2
      000000FAH   SFRSYM    DATA     BYTE      CCU6_CC60SRL
      000000CDH   SFRSYM    DATA     BYTE      ADC_CHCTR3
      000000A4H   SFRSYM    DATA     BYTE      CCU6_T12DTCL
      000000FCH   SFRSYM    DATA     BYTE      CCU6_CC61SRL
      000000CEH   SFRSYM    DATA     BYTE      ADC_CHCTR4
      000000B8H.1 SFRSYM    DATA     BIT       PT0
      000000BCH   SFRSYM    DATA     BYTE      WDTREL
      000000BBH   SFRSYM    DATA     BYTE      PASSWD
      000000FEH   SFRSYM    DATA     BYTE      CCU6_CC62SRL
      000000CFH   SFRSYM    DATA     BYTE      ADC_CHCTR5
LX51 LINKER/LOCATER V4.66.41.0                                                        03/18/2016  11:02:42  PAGE 50


      000000D0H.3 SFRSYM    DATA     BIT       RS0
      000000B8H.3 SFRSYM    DATA     BIT       PT1
      0000009AH   SFRSYM    DATA     BYTE      CCU6_CC63SRL
      000000D2H   SFRSYM    DATA     BYTE      ADC_CHCTR6
      00000088H.4 SFRSYM    DATA     BIT       TR0
      000000D0H.4 SFRSYM    DATA     BIT       RS1
      000000B8H.5 SFRSYM    DATA     BIT       PT2
      000000A0H   SFRSYM    DATA     BIT       CD_BSY
      000000D3H   SFRSYM    DATA     BYTE      ADC_CHCTR7
      00000088H.6 SFRSYM    DATA     BIT       TR1
      000000A0H.2 SFRSYM    DATA     BIT       EOC
      0000009DH   SFRSYM    DATA     BYTE      CCU6_ISH
      000000CEH   SFRSYM    DATA     BYTE      ADC_INPCR0
      000000C0H.2 SFRSYM    DATA     BIT       TR2
      000000B8H   SFRSYM    DATA     BIT       PX0
      000000CBH   SFRSYM    DATA     BYTE      UART1_BG
      00000080H   SFRSYM    DATA     BYTE      P0_ALTSEL0
      000000F6H   SFRSYM    DATA     BYTE      HWBPSR
      000000B8H.2 SFRSYM    DATA     BIT       PX1
      00000090H   SFRSYM    DATA     BYTE      P1_ALTSEL0
      00000086H   SFRSYM    DATA     BYTE      P0_ALTSEL1
      000000F8H.2 SFRSYM    DATA     BIT       PX2
      00000091H   SFRSYM    DATA     BYTE      P1_ALTSEL1
      000000FFH   SFRSYM    DATA     BYTE      CCU6_CMPSTATH
      000000B0H   SFRSYM    DATA     BYTE      P3_ALTSEL0
      0000009CH   SFRSYM    DATA     BYTE      CCU6_ISL
      000000CEH   SFRSYM    DATA     BYTE      ADC_VFCR
      000000C8H   SFRSYM    DATA     BYTE      P4_ALTSEL0
      000000B1H   SFRSYM    DATA     BYTE      P3_ALTSEL1
      00000083H   SFRSYM    DATA     BYTE      DPH
      000000C8H.2 SFRSYM    DATA     BIT       RB8_1
      00000092H   SFRSYM    DATA     BYTE      P5_ALTSEL0
      000000C9H   SFRSYM    DATA     BYTE      P4_ALTSEL1
      00000093H   SFRSYM    DATA     BYTE      P5_ALTSEL1
      00000086H   SFRSYM    DATA     BYTE      P0_PUDEN
      000000FEH   SFRSYM    DATA     BYTE      CCU6_CMPSTATL
      000000C8H.3 SFRSYM    DATA     BIT       TB8_1
      000000A0H.3 SFRSYM    DATA     BIT       INT_EN
      00000091H   SFRSYM    DATA     BYTE      P1_PUDEN
      000000CBH   SFRSYM    DATA     BYTE      ADC_RESR0H
      000000CCH   SFRSYM    DATA     BYTE      ADC_PRAR
      000000A1H   SFRSYM    DATA     BYTE      P2_PUDEN
      000000B3H   SFRSYM    DATA     BYTE      MODPISEL
      00000082H   SFRSYM    DATA     BYTE      DPL
      000000CDH   SFRSYM    DATA     BYTE      ADC_RESR1H
      000000C8H.7 SFRSYM    DATA     BIT       SM0_1
      000000B1H   SFRSYM    DATA     BYTE      P3_PUDEN
      000000B9H   SFRSYM    DATA     BYTE      IPH
      000000CFH   SFRSYM    DATA     BYTE      ADC_RESR2H
      0000009CH   SFRSYM    DATA     WORD      CCU6_T12PRLH
      000000C8H.6 SFRSYM    DATA     BIT       SM1_1
      000000C9H   SFRSYM    DATA     BYTE      P4_PUDEN
      000000E9H   SFRSYM    DATA     BYTE      MMCR2
      000000D3H   SFRSYM    DATA     BYTE      ADC_RESR3H
      000000CBH   SFRSYM    DATA     BYTE      ADC_CHINCR
      0000009EH   SFRSYM    DATA     WORD      CCU6_T13PRLH
      000000C8H.5 SFRSYM    DATA     BIT       SM2_1
      000000C0H.3 SFRSYM    DATA     BIT       EXEN2
      00000093H   SFRSYM    DATA     BYTE      P5_PUDEN
      000000CAH   SFRSYM    DATA     BYTE      ADC_RESR0L
      000000CCH   SFRSYM    DATA     BYTE      ADC_RESR1L
      00000098H.4 SFRSYM    DATA     BIT       REN
      000000CEH   SFRSYM    DATA     BYTE      ADC_RESR2L
      000000CAH   SFRSYM    DATA     BYTE      ADC_CHINFR
      000000C5H   SFRSYM    DATA     BYTE      T21_T2H
LX51 LINKER/LOCATER V4.66.41.0                                                        03/18/2016  11:02:42  PAGE 51


      0000009FH   SFRSYM    DATA     BYTE      CCU6_MCMOUTSH
      000000D2H   SFRSYM    DATA     BYTE      ADC_RESR3L
      000000A0H   SFRSYM    DATA     BYTE      CD_STATC
      000000E8H.3 SFRSYM    DATA     BIT       EXM
      000000C4H   SFRSYM    DATA     BYTE      T21_T2L
      000000BFH   SFRSYM    DATA     BYTE      SCU_PAGE
      0000009FH   SFRSYM    DATA     BYTE      CCU6_PISEL0H
      0000009EH   SFRSYM    DATA     BYTE      CCU6_MCMOUTSL
      000000E9H   SFRSYM    DATA     BYTE      FDCON
      000000B0H   SFRSYM    DATA     BYTE      MDU_MDUSTAT
      000000CAH   SFRSYM    DATA     WORD      ADC_RESRA0LH
      000000CCH   SFRSYM    DATA     WORD      ADC_RESRA1LH
      000000E9H   SFRSYM    DATA     BYTE      MISC_CON
      0000009EH   SFRSYM    DATA     BYTE      CCU6_PISEL0L
      000000CEH   SFRSYM    DATA     WORD      ADC_RESRA2LH
      000000CDH   SFRSYM    DATA     BYTE      ADC_CHINPR
      000000D2H   SFRSYM    DATA     WORD      ADC_RESRA3LH
      000000BAH   SFRSYM    DATA     BYTE      CMCON
      000000CAH   SFRSYM    DATA     BYTE      UART1_BCON
      000000FBH   SFRSYM    DATA     BYTE      CCU6_T12H
      000000CFH   SFRSYM    DATA     BYTE      ADC_EVINCR
      000000CCH   SFRSYM    DATA     BYTE      ADC_CHINSR
      00000080H   SFRSYM    DATA     BYTE      P0_OD
      000000BEH   SFRSYM    DATA     BYTE      COCON
      000000FDH   SFRSYM    DATA     BYTE      CCU6_T13H
      000000C2H   SFRSYM    DATA     WORD      T21_RC2LH
      00000090H   SFRSYM    DATA     BYTE      P1_OD
      000000D0H.5 SFRSYM    DATA     BIT       F0
      000000F8H.3 SFRSYM    DATA     BIT       PXM
      000000EBH   SFRSYM    DATA     BYTE      MMWR1
      000000EBH   SFRSYM    DATA     BYTE      FDRES
      000000CEH   SFRSYM    DATA     BYTE      ADC_EVINFR
      000000C8H.4 SFRSYM    DATA     BIT       REN_1
      000000D0H.1 SFRSYM    DATA     BIT       F1
      000000C3H   SFRSYM    DATA     BYTE      T2_RC2H
      000000B0H   SFRSYM    DATA     BYTE      P3_OD
      000000ECH   SFRSYM    DATA     BYTE      MMWR2
      000000FAH   SFRSYM    DATA     BYTE      CCU6_T12L
      000000C8H   SFRSYM    DATA     BYTE      P4_OD
      000000FCH   SFRSYM    DATA     BYTE      CCU6_T13L
      00000092H   SFRSYM    DATA     BYTE      P5_OD
      000000B7H   SFRSYM    DATA     BYTE      EXICON0
      000000F4H   SFRSYM    DATA     BYTE      MMICR
      000000BAH   SFRSYM    DATA     BYTE      EXICON1
      000000C2H   SFRSYM    DATA     BYTE      T2_RC2L
      000000D0H   SFRSYM    DATA     BYTE      PSW
      000000FBH   SFRSYM    DATA     BYTE      CCU6_CC60RH
      00000080H   SFRSYM    DATA     BYTE      P0_DATA
      000000FDH   SFRSYM    DATA     BYTE      CCU6_CC61RH
      00000090H   SFRSYM    DATA     BYTE      P1_DATA
      000000FFH   SFRSYM    DATA     BYTE      CCU6_CC62RH
      000000A0H   SFRSYM    DATA     BYTE      P2_DATA
      0000009BH   SFRSYM    DATA     BYTE      CCU6_CC63RH

      010005D9H   BLOCK     CODE     ---       LVL=0
      010005D9H   LINE      ---      ---       #49
      010005D9H   LINE      ---      ---       #50
      010005D9H   LINE      ---      ---       #52
      010005DCH   LINE      ---      ---       #53
      010005DFH   LINE      ---      ---       #54
      010005E2H   LINE      ---      ---       #55
      010005E4H   LINE      ---      ---       #163
      ---         BLOCKEND  ---      ---       LVL=0

      ---         MODULE    ---      ---       FLASHUTILS
LX51 LINKER/LOCATER V4.66.41.0                                                        03/18/2016  11:02:42  PAGE 52


      00000049H   PUBLIC    DATA     BYTE      ?_writeBufferToFlash?BYTE
      01000AC6H   PUBLIC    CODE     ---       _writeBufferToFlash
      010009C9H   PUBLIC    CODE     ---       _readFlashToBuffer
      01000A74H   PUBLIC    CODE     ---       _writeToFlashPage
      010007ABH   PUBLIC    CODE     ---       getFlashDataEndAddress
      000000A0H.5 SFRSYM    DATA     BIT       KEEPX
      000000B0H   SFRSYM    DATA     BYTE      P3_DATA
      000000FAH   SFRSYM    DATA     BYTE      CCU6_CC60RL
      000000DBH   SFRSYM    DATA     BYTE      CAN_DATA0
      000000A0H.6 SFRSYM    DATA     BIT       KEEPY
      000000C1H   SFRSYM    DATA     BYTE      T21_T2MOD
      000000C0H   SFRSYM    DATA     BYTE      T21_T2CON
      000000C8H   SFRSYM    DATA     BYTE      P4_DATA
      000000FCH   SFRSYM    DATA     BYTE      CCU6_CC61RL
      000000DCH   SFRSYM    DATA     BYTE      CAN_DATA1
      000000D3H   SFRSYM    DATA     BYTE      ADC_EVINPR
      000000A0H.7 SFRSYM    DATA     BIT       KEEPZ
      000000C9H   SFRSYM    DATA     BYTE      UART1_SBUF
      00000092H   SFRSYM    DATA     BYTE      P5_DATA
      000000FEH   SFRSYM    DATA     BYTE      CCU6_CC62RL
      000000DDH   SFRSYM    DATA     BYTE      CAN_DATA2
      000000DAH   SFRSYM    DATA     BYTE      CAN_ADH
      000000C4H   SFRSYM    DATA     WORD      T2_T2LH
      0000009AH   SFRSYM    DATA     BYTE      CCU6_CC63RL
      000000DEH   SFRSYM    DATA     BYTE      CAN_DATA3
      000000D2H   SFRSYM    DATA     BYTE      ADC_EVINSR
      000000D0H.6 SFRSYM    DATA     BIT       AC
      000000C8H   SFRSYM    DATA     BYTE      UART1_SCON
      000000D9H   SFRSYM    DATA     BYTE      CAN_ADL
      000000A8H.7 SFRSYM    DATA     BIT       EA
      000000CAH   SFRSYM    DATA     BYTE      ADC_CRCR1
      000000FDH   SFRSYM    DATA     BYTE      CCU6_MODCTRH
      000000B2H   SFRSYM    DATA     BYTE      MDU_MD0
      000000BEH   SFRSYM    DATA     BYTE      BG
      000000B3H   SFRSYM    DATA     BYTE      MDU_MD1
      000000BCH   SFRSYM    DATA     BYTE      NMISR
      000000B4H   SFRSYM    DATA     BYTE      MDU_MD2
      000000FCH   SFRSYM    DATA     BYTE      CCU6_MODCTRL
      000000A0H.1 SFRSYM    DATA     BIT       ERROR
      000000B5H   SFRSYM    DATA     BYTE      MDU_MD3
      000000B6H   SFRSYM    DATA     BYTE      MDU_MD4
      000000A8H   SFRSYM    DATA     BYTE      IEN0
      000000B3H   SFRSYM    DATA     BYTE      ID
      000000E8H   SFRSYM    DATA     BIT       EADC
      000000B7H   SFRSYM    DATA     BYTE      MDU_MD5
      000000E8H   SFRSYM    DATA     BYTE      IEN1
      000000A7H   SFRSYM    DATA     BYTE      CCU6_CMPMODIFH
      00000080H   SFRSYM    DATA     BIT       P0_0
      000000B1H   SFRSYM    DATA     BYTE      MDU_MDUCON
      000000CCH   SFRSYM    DATA     BYTE      ADC_CRMR1
      00000090H   SFRSYM    DATA     BIT       P1_0
      00000080H.1 SFRSYM    DATA     BIT       P0_1
      000000A3H   SFRSYM    DATA     BYTE      CCU6_PAGE
      000000A0H   SFRSYM    DATA     BIT       P2_0
      00000090H.1 SFRSYM    DATA     BIT       P1_1
      00000080H.2 SFRSYM    DATA     BIT       P0_2
      0000008FH   SFRSYM    DATA     BYTE      SYSCON0
      000000B7H   SFRSYM    DATA     BYTE      MODPISEL1
      000000A6H   SFRSYM    DATA     BYTE      CCU6_CMPMODIFL
      000000B0H   SFRSYM    DATA     BIT       P3_0
      000000A0H.1 SFRSYM    DATA     BIT       P2_1
      00000090H.2 SFRSYM    DATA     BIT       P1_2
      00000080H.3 SFRSYM    DATA     BIT       P0_3
      000000BAH   SFRSYM    DATA     BYTE      MODPISEL2
      000000F9H   SFRSYM    DATA     BYTE      IPH1
LX51 LINKER/LOCATER V4.66.41.0                                                        03/18/2016  11:02:42  PAGE 53


      0000009BH   SFRSYM    DATA     BYTE      CCU6_MCMOUTH
      000000CBH   SFRSYM    DATA     BYTE      ADC_CRPR1
      000000C8H   SFRSYM    DATA     BIT       P4_0
      000000B0H.1 SFRSYM    DATA     BIT       P3_1
      000000A0H.2 SFRSYM    DATA     BIT       P2_2
      00000090H.3 SFRSYM    DATA     BIT       P1_3
      00000080H.4 SFRSYM    DATA     BIT       P0_4
      000000A2H   SFRSYM    DATA     BYTE      EO
      000000C8H.1 SFRSYM    DATA     BIT       P4_1
      000000B0H.2 SFRSYM    DATA     BIT       P3_2
      000000A0H.3 SFRSYM    DATA     BIT       P2_3
      00000090H.4 SFRSYM    DATA     BIT       P1_4
      00000080H.5 SFRSYM    DATA     BIT       P0_5
      000000BDH   SFRSYM    DATA     BYTE      FEAH
      000000D2H   SFRSYM    DATA     BYTE      ADC_QINR0
      000000D2H   SFRSYM    DATA     BYTE      ADC_QBUR0
      000000C8H.2 SFRSYM    DATA     BIT       P4_2
      000000B0H.3 SFRSYM    DATA     BIT       P3_3
      000000A0H.4 SFRSYM    DATA     BIT       P2_4
      00000090H.5 SFRSYM    DATA     BIT       P1_5
      00000080H.6 SFRSYM    DATA     BIT       P0_6
      000000C0H.6 SFRSYM    DATA     BIT       EXF2
      000000E8H.4 SFRSYM    DATA     BIT       ECCIP0
      0000009DH   SFRSYM    DATA     BYTE      CCU6_T12PRH
      000000C8H.3 SFRSYM    DATA     BIT       P4_3
      000000B0H.4 SFRSYM    DATA     BIT       P3_4
      000000A0H.5 SFRSYM    DATA     BIT       P2_5
      00000090H.6 SFRSYM    DATA     BIT       P1_6
      00000080H.7 SFRSYM    DATA     BIT       P0_7
      000000E8H.5 SFRSYM    DATA     BIT       ECCIP1
      000000B2H   SFRSYM    DATA     BYTE      MDU_MR0
      0000009FH   SFRSYM    DATA     BYTE      CCU6_T13PRH
      0000009AH   SFRSYM    DATA     BYTE      CCU6_MCMOUTL
      000000C8H.4 SFRSYM    DATA     BIT       P4_4
      000000B0H.5 SFRSYM    DATA     BIT       P3_5
      000000A0H.6 SFRSYM    DATA     BIT       P2_6
      00000090H.7 SFRSYM    DATA     BIT       P1_7
      000000E8H.6 SFRSYM    DATA     BIT       ECCIP2
      000000A8H.4 SFRSYM    DATA     BIT       ES
      000000CDH   SFRSYM    DATA     BYTE      UART1_FDSTEP
      000000B3H   SFRSYM    DATA     BYTE      MDU_MR1
      0000009DH   SFRSYM    DATA     BYTE      CCU6_IENH
      000000C8H.5 SFRSYM    DATA     BIT       P4_5
      000000B0H.6 SFRSYM    DATA     BIT       P3_6
      000000A0H.7 SFRSYM    DATA     BIT       P2_7
      000000F8H   SFRSYM    DATA     BIT       PADC
      000000E8H.7 SFRSYM    DATA     BIT       ECCIP3
      000000B4H   SFRSYM    DATA     BYTE      MDU_MR2
      000000B8H   SFRSYM    DATA     BYTE      IP
      000000BCH   SFRSYM    DATA     BYTE      FEAL
      000000C8H.6 SFRSYM    DATA     BIT       P4_6
      000000B0H.7 SFRSYM    DATA     BIT       P3_7
      000000B5H   SFRSYM    DATA     BYTE      MDU_MR3
      0000009CH   SFRSYM    DATA     BYTE      CCU6_T12PRL
      000000D8H   SFRSYM    DATA     BYTE      CAN_ADCON
      000000C8H.7 SFRSYM    DATA     BIT       P4_7
      000000FAH   SFRSYM    DATA     WORD      CCU6_CC60SRLH
      00000098H   SFRSYM    DATA     BIT       RI
      000000B6H   SFRSYM    DATA     BYTE      MDU_MR4
      0000009EH   SFRSYM    DATA     BYTE      CCU6_T13PRL
      000000FCH   SFRSYM    DATA     WORD      CCU6_CC61SRLH
      000000D0H.7 SFRSYM    DATA     BIT       CY
      000000B7H   SFRSYM    DATA     BYTE      MDU_MR5
      0000009CH   SFRSYM    DATA     BYTE      CCU6_IENL
      000000FEH   SFRSYM    DATA     WORD      CCU6_CC62SRLH
LX51 LINKER/LOCATER V4.66.41.0                                                        03/18/2016  11:02:42  PAGE 54


      00000098H.1 SFRSYM    DATA     BIT       TI
      000000FFH   SFRSYM    DATA     BYTE      CCU6_TRPCTRH
      0000009AH   SFRSYM    DATA     WORD      CCU6_CC63SRLH
      000000F8H.4 SFRSYM    DATA     BIT       PCCIP0
      000000FEH   SFRSYM    DATA     BYTE      CCU6_TRPCTRL
      000000CBH   SFRSYM    DATA     BYTE      ADC_RESRA0H
      000000F8H.5 SFRSYM    DATA     BIT       PCCIP1
      000000BDH   SFRSYM    DATA     BYTE      WDTWINB
      000000CDH   SFRSYM    DATA     BYTE      ADC_RESRA1H
      000000B8H.4 SFRSYM    DATA     BIT       PS
      000000F8H.6 SFRSYM    DATA     BIT       PCCIP2
      000000A0H.4 SFRSYM    DATA     BIT       DMAP
      000000ABH   SFRSYM    DATA     BYTE      SSC_CONH_O
      00000081H   SFRSYM    DATA     BYTE      SP
      0000009FH   SFRSYM    DATA     BYTE      CCU6_INPH
      000000BDH   SFRSYM    DATA     BYTE      BCON
      000000CFH   SFRSYM    DATA     BYTE      ADC_RESRA2H
      000000F8H.7 SFRSYM    DATA     BIT       PCCIP3
      000000ABH   SFRSYM    DATA     BYTE      SSC_CONH_P
      000000A4H   SFRSYM    DATA     BYTE      CCU6_PISEL2
      000000D3H   SFRSYM    DATA     BYTE      ADC_RESRA3H
      000000D0H.2 SFRSYM    DATA     BIT       OV
      000000CAH   SFRSYM    DATA     BYTE      ADC_RESRA0L
      0000009BH   SFRSYM    DATA     BYTE      CCU6_T12MSELH
      000000CCH   SFRSYM    DATA     BYTE      ADC_RESRA1L
      000000AAH   SFRSYM    DATA     BYTE      SSC_CONL_O
      000000AFH   SFRSYM    DATA     BYTE      SSC_BRH
      000000B6H   SFRSYM    DATA     BYTE      OSC_CON
      0000009EH   SFRSYM    DATA     BYTE      CCU6_INPL
      000000CEH   SFRSYM    DATA     BYTE      ADC_RESRA2L
      000000C3H   SFRSYM    DATA     BYTE      T21_RC2H
      000000AAH   SFRSYM    DATA     BYTE      SSC_CONL_P
      000000D2H   SFRSYM    DATA     BYTE      ADC_RESRA3L
      000000C0H.1 SFRSYM    DATA     BIT       C_T2
      000000B7H   SFRSYM    DATA     BYTE      PLL_CON
      000000A7H   SFRSYM    DATA     BYTE      CCU6_TCTR0H
      0000009AH   SFRSYM    DATA     BYTE      CCU6_T12MSELL
      000000A5H   SFRSYM    DATA     BYTE      CCU6_ISRH
      000000ADH   SFRSYM    DATA     BYTE      SSC_RBL
      000000AEH   SFRSYM    DATA     BYTE      SSC_BRL
      000000A5H   SFRSYM    DATA     BYTE      CCU6_ISSH
      000000CFH   SFRSYM    DATA     BYTE      ADC_ETRCR
      000000CAH   SFRSYM    DATA     WORD      ADC_RESR0LH
      000000C8H   SFRSYM    DATA     BIT       RI_1
      000000C2H   SFRSYM    DATA     BYTE      T21_RC2L
      000000FBH   SFRSYM    DATA     BYTE      CCU6_TCTR2H
      000000CCH   SFRSYM    DATA     WORD      ADC_RESR1LH
      000000ACH   SFRSYM    DATA     BYTE      SSC_TBL
      000000B4H   SFRSYM    DATA     BYTE      IRCON0
      000000CFH   SFRSYM    DATA     BYTE      ADC_Q0R0
      000000CEH   SFRSYM    DATA     WORD      ADC_RESR2LH
      000000C8H.1 SFRSYM    DATA     BIT       TI_1
      000000BDH   SFRSYM    DATA     BYTE      MODSUSP
      000000B5H   SFRSYM    DATA     BYTE      IRCON1
      0000009DH   SFRSYM    DATA     BYTE      CCU6_TCTR4H
      000000A6H   SFRSYM    DATA     BYTE      CCU6_TCTR0L
      000000A4H   SFRSYM    DATA     BYTE      CCU6_ISRL
      000000D2H   SFRSYM    DATA     WORD      ADC_RESR3LH
      000000E8H.1 SFRSYM    DATA     BIT       ESSC
      000000B4H   SFRSYM    DATA     BYTE      PMCON0
      000000B6H   SFRSYM    DATA     BYTE      IRCON2
      000000A4H   SFRSYM    DATA     BYTE      CCU6_ISSL
      000000DBH   SFRSYM    DATA     WORD      CAN_DATA01
      000000B5H   SFRSYM    DATA     BYTE      PMCON1
      00000080H   SFRSYM    DATA     BYTE      P0_PUDSEL
LX51 LINKER/LOCATER V4.66.41.0                                                        03/18/2016  11:02:42  PAGE 55


      000000F1H   SFRSYM    DATA     BYTE      MMCR
      000000B4H   SFRSYM    DATA     BYTE      IRCON3
      000000FAH   SFRSYM    DATA     BYTE      CCU6_TCTR2L
      00000099H   SFRSYM    DATA     BYTE      SBUF
      000000BBH   SFRSYM    DATA     BYTE      PMCON2
      00000087H   SFRSYM    DATA     BYTE      PCON
      00000090H   SFRSYM    DATA     BYTE      P1_PUDSEL
      000000F5H   SFRSYM    DATA     BYTE      MMDR
      000000B5H   SFRSYM    DATA     BYTE      IRCON4
      000000A0H   SFRSYM    DATA     BYTE      P2_PUDSEL
      0000009BH   SFRSYM    DATA     BYTE      CD_CORDXH
      0000009CH   SFRSYM    DATA     BYTE      CCU6_TCTR4L
      000000C4H   SFRSYM    DATA     WORD      T21_T2LH
      000000B0H.1 SFRSYM    DATA     BIT       IERR
      000000B0H   SFRSYM    DATA     BYTE      P3_PUDSEL
      0000009DH   SFRSYM    DATA     BYTE      CD_CORDYH
      000000DDH   SFRSYM    DATA     WORD      CAN_DATA23
      00000098H   SFRSYM    DATA     BYTE      SCON
      000000C8H   SFRSYM    DATA     BYTE      P4_PUDSEL
      0000009FH   SFRSYM    DATA     BYTE      CD_CORDZH
      00000089H   SFRSYM    DATA     BYTE      TMOD
      00000088H   SFRSYM    DATA     BYTE      TCON
      000000C5H   SFRSYM    DATA     BYTE      T2_T2H
      00000092H   SFRSYM    DATA     BYTE      P5_PUDSEL
      000000A6H   SFRSYM    DATA     BYTE      CCU6_PSLR
      000000B0H.2 SFRSYM    DATA     BIT       MDU_BSY
      0000009AH   SFRSYM    DATA     BYTE      CD_CORDXL
      0000009CH   SFRSYM    DATA     BYTE      CD_CORDYL
      000000BFH   SFRSYM    DATA     BYTE      WDTH
      0000009EH   SFRSYM    DATA     BYTE      CD_CORDZL
      000000B0H   SFRSYM    DATA     BIT       IRDY
      000000C4H   SFRSYM    DATA     BYTE      T2_T2L
      000000CAH   SFRSYM    DATA     BYTE      ADC_GLOBCTR
      000000F8H.1 SFRSYM    DATA     BIT       PSSC
      000000CCH   SFRSYM    DATA     BYTE      UART1_FDCON
      000000A7H   SFRSYM    DATA     BYTE      CCU6_MCMCTR
      000000BEH   SFRSYM    DATA     BYTE      WDTL
      000000B3H   SFRSYM    DATA     BYTE      XADDRH
      00000088H.1 SFRSYM    DATA     BIT       IE0
      000000FAH   SFRSYM    DATA     WORD      CCU6_T12LH
      00000088H.3 SFRSYM    DATA     BIT       IE1
      000000FCH   SFRSYM    DATA     WORD      CCU6_T13LH
      00000086H   SFRSYM    DATA     BYTE      P0_DIR
      000000F2H   SFRSYM    DATA     BYTE      MMSR
      00000091H   SFRSYM    DATA     BYTE      P1_DIR
      000000F0H   SFRSYM    DATA     BYTE      B
      000000CAH   SFRSYM    DATA     BYTE      ADC_RCR0
      000000A1H   SFRSYM    DATA     BYTE      P2_DIR
      000000CBH   SFRSYM    DATA     BYTE      ADC_RCR1
      000000C2H   SFRSYM    DATA     WORD      T2_RC2LH
      000000B1H   SFRSYM    DATA     BYTE      P3_DIR
      000000F3H   SFRSYM    DATA     BYTE      MMBPCR
      000000CCH   SFRSYM    DATA     BYTE      ADC_RCR2
      000000C0H   SFRSYM    DATA     BIT       CP_RL2
      000000C9H   SFRSYM    DATA     BYTE      P4_DIR
      000000CDH   SFRSYM    DATA     BYTE      ADC_RCR3
      000000CEH   SFRSYM    DATA     BYTE      UART1_FDRES
      000000B2H   SFRSYM    DATA     BYTE      PORT_PAGE
      00000093H   SFRSYM    DATA     BYTE      P5_DIR
      000000BBH   SFRSYM    DATA     BYTE      NMICON
      000000FAH   SFRSYM    DATA     WORD      CCU6_CC60RLH
      000000D1H   SFRSYM    DATA     BYTE      ADC_PAGE
      000000E0H   SFRSYM    DATA     BYTE      ACC
      000000FCH   SFRSYM    DATA     WORD      CCU6_CC61RLH
      000000EAH   SFRSYM    DATA     BYTE      FDSTEP
LX51 LINKER/LOCATER V4.66.41.0                                                        03/18/2016  11:02:42  PAGE 56


      000000A1H   SFRSYM    DATA     BYTE      CD_CON
      000000FEH   SFRSYM    DATA     WORD      CCU6_CC62RLH
      000000A8H.1 SFRSYM    DATA     BIT       ET0
      000000A9H   SFRSYM    DATA     BYTE      SSC_PISEL
      000000F7H   SFRSYM    DATA     BYTE      HWBPDR
      000000CBH   SFRSYM    DATA     BYTE      ADC_GLOBSTR
      0000009AH   SFRSYM    DATA     WORD      CCU6_CC63RLH
      00000088H.5 SFRSYM    DATA     BIT       TF0
      000000A8H.3 SFRSYM    DATA     BIT       ET1
      000000F8H   SFRSYM    DATA     BYTE      IP1
      000000CDH   SFRSYM    DATA     BYTE      ADC_QMR0
      00000088H.7 SFRSYM    DATA     BIT       TF1
      000000A8H.5 SFRSYM    DATA     BIT       ET2
      000000C0H.7 SFRSYM    DATA     BIT       TF2
      00000098H.2 SFRSYM    DATA     BIT       RB8
      0000008CH   SFRSYM    DATA     BYTE      TH0
      000000D9H   SFRSYM    DATA     WORD      CAN_ADLH
      00000088H   SFRSYM    DATA     BIT       IT0
      000000A8H   SFRSYM    DATA     BIT       EX0
      0000008DH   SFRSYM    DATA     BYTE      TH1
      000000CDH   SFRSYM    DATA     BYTE      ADC_LCBR
      00000088H.2 SFRSYM    DATA     BIT       IT1
      00000098H.3 SFRSYM    DATA     BIT       TB8
      000000A8H.2 SFRSYM    DATA     BIT       EX1
      000000C1H   SFRSYM    DATA     BYTE      T2_T2MOD
      000000C0H   SFRSYM    DATA     BYTE      T2_T2CON
      000000FBH   SFRSYM    DATA     BYTE      CCU6_CC60SRH
      000000D0H   SFRSYM    DATA     BIT       P
      000000E8H.2 SFRSYM    DATA     BIT       EX2
      000000A5H   SFRSYM    DATA     BYTE      CCU6_T12DTCH
      000000FDH   SFRSYM    DATA     BYTE      CCU6_CC61SRH
      000000CAH   SFRSYM    DATA     BYTE      ADC_CHCTR0
      00000098H.7 SFRSYM    DATA     BIT       SM0
      0000008AH   SFRSYM    DATA     BYTE      TL0
      000000FFH   SFRSYM    DATA     BYTE      CCU6_CC62SRH
      000000CEH   SFRSYM    DATA     BYTE      ADC_QSR0
      000000CBH   SFRSYM    DATA     BYTE      ADC_CHCTR1
      00000098H.6 SFRSYM    DATA     BIT       SM1
      000000BBH   SFRSYM    DATA     BYTE      WDTCON
      0000008BH   SFRSYM    DATA     BYTE      TL1
      0000009BH   SFRSYM    DATA     BYTE      CCU6_CC63SRH
      000000CCH   SFRSYM    DATA     BYTE      ADC_CHCTR2
      00000098H.5 SFRSYM    DATA     BIT       SM2
      000000FAH   SFRSYM    DATA     BYTE      CCU6_CC60SRL
      000000CDH   SFRSYM    DATA     BYTE      ADC_CHCTR3
      000000A4H   SFRSYM    DATA     BYTE      CCU6_T12DTCL
      000000FCH   SFRSYM    DATA     BYTE      CCU6_CC61SRL
      000000CEH   SFRSYM    DATA     BYTE      ADC_CHCTR4
      000000B8H.1 SFRSYM    DATA     BIT       PT0
      000000BCH   SFRSYM    DATA     BYTE      WDTREL
      000000BBH   SFRSYM    DATA     BYTE      PASSWD
      000000FEH   SFRSYM    DATA     BYTE      CCU6_CC62SRL
      000000CFH   SFRSYM    DATA     BYTE      ADC_CHCTR5
      000000D0H.3 SFRSYM    DATA     BIT       RS0
      000000B8H.3 SFRSYM    DATA     BIT       PT1
      0000009AH   SFRSYM    DATA     BYTE      CCU6_CC63SRL
      000000D2H   SFRSYM    DATA     BYTE      ADC_CHCTR6
      00000088H.4 SFRSYM    DATA     BIT       TR0
      000000D0H.4 SFRSYM    DATA     BIT       RS1
      000000B8H.5 SFRSYM    DATA     BIT       PT2
      000000A0H   SFRSYM    DATA     BIT       CD_BSY
      000000D3H   SFRSYM    DATA     BYTE      ADC_CHCTR7
      00000088H.6 SFRSYM    DATA     BIT       TR1
      000000A0H.2 SFRSYM    DATA     BIT       EOC
      0000009DH   SFRSYM    DATA     BYTE      CCU6_ISH
LX51 LINKER/LOCATER V4.66.41.0                                                        03/18/2016  11:02:42  PAGE 57


      000000CEH   SFRSYM    DATA     BYTE      ADC_INPCR0
      000000C0H.2 SFRSYM    DATA     BIT       TR2
      000000B8H   SFRSYM    DATA     BIT       PX0
      000000CBH   SFRSYM    DATA     BYTE      UART1_BG
      00000080H   SFRSYM    DATA     BYTE      P0_ALTSEL0
      000000F6H   SFRSYM    DATA     BYTE      HWBPSR
      000000B8H.2 SFRSYM    DATA     BIT       PX1
      00000090H   SFRSYM    DATA     BYTE      P1_ALTSEL0
      00000086H   SFRSYM    DATA     BYTE      P0_ALTSEL1
      000000F8H.2 SFRSYM    DATA     BIT       PX2
      00000091H   SFRSYM    DATA     BYTE      P1_ALTSEL1
      000000FFH   SFRSYM    DATA     BYTE      CCU6_CMPSTATH
      000000B0H   SFRSYM    DATA     BYTE      P3_ALTSEL0
      0000009CH   SFRSYM    DATA     BYTE      CCU6_ISL
      000000CEH   SFRSYM    DATA     BYTE      ADC_VFCR
      000000C8H   SFRSYM    DATA     BYTE      P4_ALTSEL0
      000000B1H   SFRSYM    DATA     BYTE      P3_ALTSEL1
      00000083H   SFRSYM    DATA     BYTE      DPH
      000000C8H.2 SFRSYM    DATA     BIT       RB8_1
      00000092H   SFRSYM    DATA     BYTE      P5_ALTSEL0
      000000C9H   SFRSYM    DATA     BYTE      P4_ALTSEL1
      00000093H   SFRSYM    DATA     BYTE      P5_ALTSEL1
      00000086H   SFRSYM    DATA     BYTE      P0_PUDEN
      000000FEH   SFRSYM    DATA     BYTE      CCU6_CMPSTATL
      000000C8H.3 SFRSYM    DATA     BIT       TB8_1
      000000A0H.3 SFRSYM    DATA     BIT       INT_EN
      00000091H   SFRSYM    DATA     BYTE      P1_PUDEN
      000000CBH   SFRSYM    DATA     BYTE      ADC_RESR0H
      000000CCH   SFRSYM    DATA     BYTE      ADC_PRAR
      000000A1H   SFRSYM    DATA     BYTE      P2_PUDEN
      000000B3H   SFRSYM    DATA     BYTE      MODPISEL
      00000082H   SFRSYM    DATA     BYTE      DPL
      000000CDH   SFRSYM    DATA     BYTE      ADC_RESR1H
      000000C8H.7 SFRSYM    DATA     BIT       SM0_1
      000000B1H   SFRSYM    DATA     BYTE      P3_PUDEN
      000000B9H   SFRSYM    DATA     BYTE      IPH
      000000CFH   SFRSYM    DATA     BYTE      ADC_RESR2H
      0000009CH   SFRSYM    DATA     WORD      CCU6_T12PRLH
      000000C8H.6 SFRSYM    DATA     BIT       SM1_1
      000000C9H   SFRSYM    DATA     BYTE      P4_PUDEN
      000000E9H   SFRSYM    DATA     BYTE      MMCR2
      000000D3H   SFRSYM    DATA     BYTE      ADC_RESR3H
      000000CBH   SFRSYM    DATA     BYTE      ADC_CHINCR
      0000009EH   SFRSYM    DATA     WORD      CCU6_T13PRLH
      000000C8H.5 SFRSYM    DATA     BIT       SM2_1
      000000C0H.3 SFRSYM    DATA     BIT       EXEN2
      00000093H   SFRSYM    DATA     BYTE      P5_PUDEN
      000000CAH   SFRSYM    DATA     BYTE      ADC_RESR0L
      000000CCH   SFRSYM    DATA     BYTE      ADC_RESR1L
      00000098H.4 SFRSYM    DATA     BIT       REN
      000000CEH   SFRSYM    DATA     BYTE      ADC_RESR2L
      000000CAH   SFRSYM    DATA     BYTE      ADC_CHINFR
      000000C5H   SFRSYM    DATA     BYTE      T21_T2H
      0000009FH   SFRSYM    DATA     BYTE      CCU6_MCMOUTSH
      000000D2H   SFRSYM    DATA     BYTE      ADC_RESR3L
      000000A0H   SFRSYM    DATA     BYTE      CD_STATC
      000000E8H.3 SFRSYM    DATA     BIT       EXM
      000000C4H   SFRSYM    DATA     BYTE      T21_T2L
      000000BFH   SFRSYM    DATA     BYTE      SCU_PAGE
      0000009FH   SFRSYM    DATA     BYTE      CCU6_PISEL0H
      0000009EH   SFRSYM    DATA     BYTE      CCU6_MCMOUTSL
      000000E9H   SFRSYM    DATA     BYTE      FDCON
      000000B0H   SFRSYM    DATA     BYTE      MDU_MDUSTAT
      000000CAH   SFRSYM    DATA     WORD      ADC_RESRA0LH
      000000CCH   SFRSYM    DATA     WORD      ADC_RESRA1LH
LX51 LINKER/LOCATER V4.66.41.0                                                        03/18/2016  11:02:42  PAGE 58


      000000E9H   SFRSYM    DATA     BYTE      MISC_CON
      0000009EH   SFRSYM    DATA     BYTE      CCU6_PISEL0L
      000000CEH   SFRSYM    DATA     WORD      ADC_RESRA2LH
      000000CDH   SFRSYM    DATA     BYTE      ADC_CHINPR
      000000D2H   SFRSYM    DATA     WORD      ADC_RESRA3LH
      000000BAH   SFRSYM    DATA     BYTE      CMCON
      000000CAH   SFRSYM    DATA     BYTE      UART1_BCON
      000000FBH   SFRSYM    DATA     BYTE      CCU6_T12H
      000000CFH   SFRSYM    DATA     BYTE      ADC_EVINCR
      000000CCH   SFRSYM    DATA     BYTE      ADC_CHINSR
      00000080H   SFRSYM    DATA     BYTE      P0_OD
      000000BEH   SFRSYM    DATA     BYTE      COCON
      000000FDH   SFRSYM    DATA     BYTE      CCU6_T13H
      000000C2H   SFRSYM    DATA     WORD      T21_RC2LH
      00000090H   SFRSYM    DATA     BYTE      P1_OD
      000000D0H.5 SFRSYM    DATA     BIT       F0
      000000F8H.3 SFRSYM    DATA     BIT       PXM
      000000EBH   SFRSYM    DATA     BYTE      MMWR1
      000000EBH   SFRSYM    DATA     BYTE      FDRES
      000000CEH   SFRSYM    DATA     BYTE      ADC_EVINFR
      000000C8H.4 SFRSYM    DATA     BIT       REN_1
      000000D0H.1 SFRSYM    DATA     BIT       F1
      000000C3H   SFRSYM    DATA     BYTE      T2_RC2H
      000000B0H   SFRSYM    DATA     BYTE      P3_OD
      000000ECH   SFRSYM    DATA     BYTE      MMWR2
      000000FAH   SFRSYM    DATA     BYTE      CCU6_T12L
      000000C8H   SFRSYM    DATA     BYTE      P4_OD
      000000FCH   SFRSYM    DATA     BYTE      CCU6_T13L
      00000092H   SFRSYM    DATA     BYTE      P5_OD
      000000B7H   SFRSYM    DATA     BYTE      EXICON0
      000000F4H   SFRSYM    DATA     BYTE      MMICR
      000000BAH   SFRSYM    DATA     BYTE      EXICON1
      000000C2H   SFRSYM    DATA     BYTE      T2_RC2L
      000000D0H   SFRSYM    DATA     BYTE      PSW
      000000FBH   SFRSYM    DATA     BYTE      CCU6_CC60RH
      00000080H   SFRSYM    DATA     BYTE      P0_DATA
      000000FDH   SFRSYM    DATA     BYTE      CCU6_CC61RH
      00000090H   SFRSYM    DATA     BYTE      P1_DATA
      000000FFH   SFRSYM    DATA     BYTE      CCU6_CC62RH
      000000A0H   SFRSYM    DATA     BYTE      P2_DATA
      0000009BH   SFRSYM    DATA     BYTE      CCU6_CC63RH
      010005A0H   SYMBOL    CONST    ---       _?ix1000

      010007ABH   BLOCK     CODE     ---       LVL=0
      010007ABH   LINE      ---      ---       #12
      010007ABH   BLOCK     CODE     NEAR LAB  LVL=1
      010007ABH   LINE      ---      ---       #14
      010007AFH   LINE      ---      ---       #17
      010007BDH   LINE      ---      ---       #18
      010007BDH   LINE      ---      ---       #19
      010007C1H   LINE      ---      ---       #20
      010007C1H   LINE      ---      ---       #21
      010007C5H   LINE      ---      ---       #22
      010007C7H   LINE      ---      ---       #23
      010007C7H   LINE      ---      ---       #24
      010007D4H   LINE      ---      ---       #25
      010007D4H   LINE      ---      ---       #26
      00000006H   SYMBOL    DATA     ---       EECurrentAddr
      00000082H   SYMBOL    DATA     ---       EETempAddr
      ---         BLOCKEND  CODE     ---       LVL=1
      ---         BLOCKEND  CODE     ---       LVL=0

      01000A74H   BLOCK     CODE     ---       LVL=0
      01000A74H   LINE      ---      ---       #29
      00000054H   SYMBOL    DATA     ---       buffer
LX51 LINKER/LOCATER V4.66.41.0                                                        03/18/2016  11:02:42  PAGE 59


      00000056H   SYMBOL    DATA     ---       EECurrentAddr
      01000A7EH   BLOCK     CODE     NEAR LAB  LVL=1
      01000A7EH   LINE      ---      ---       #30
      01000A81H   LINE      ---      ---       #32
      01000A81H   LINE      ---      ---       #33
      01000A8FH   LINE      ---      ---       #34
      01000A97H   LINE      ---      ---       #35
      01000AA2H   LINE      ---      ---       #38
      01000AB2H   LINE      ---      ---       #39
      01000AB2H   LINE      ---      ---       #40
      01000ABFH   LINE      ---      ---       #41
      01000ABFH   LINE      ---      ---       #42
      00000006H   SYMBOL    DATA     INT       i
      ---         BLOCKEND  CODE     ---       LVL=1
      ---         BLOCKEND  CODE     ---       LVL=0

      010009C9H   BLOCK     CODE     ---       LVL=0
      010009C9H   LINE      ---      ---       #46
      010009D5H   LINE      ---      ---       #47
      00000044H   SYMBOL    DATA     ---       buffer
      00000046H   SYMBOL    DATA     INT       n
      00000048H   SYMBOL    DATA     ---       EECurrentAddr
      010009D5H   BLOCK     CODE     NEAR LAB  LVL=1
      010009D5H   LINE      ---      ---       #48
      010009DBH   LINE      ---      ---       #49
      010009E0H   LINE      ---      ---       #50
      010009E4H   LINE      ---      ---       #51
      010009E8H   LINE      ---      ---       #52
      010009F6H   LINE      ---      ---       #54
      010009FCH   LINE      ---      ---       #56
      01000A18H   LINE      ---      ---       #57
      01000A18H   LINE      ---      ---       #58
      01000A1DH   LINE      ---      ---       #59
      01000A2EH   LINE      ---      ---       #60
      01000A3CH   LINE      ---      ---       #61
      01000A44H   LINE      ---      ---       #62
      01000A4CH   LINE      ---      ---       #63
      01000A4EH   LINE      ---      ---       #64
      01000A59H   LINE      ---      ---       #65
      01000A5BH   LINE      ---      ---       #66
      0000004AH   SYMBOL    DATA     ---       EETempAddr
      0000004CH   SYMBOL    DATA     INT       i
      0000004EH   SYMBOL    DATA     INT       j
      00000050H   SYMBOL    DATA     INT       k
      ---         BLOCKEND  CODE     ---       LVL=1
      ---         BLOCKEND  CODE     ---       LVL=0

      01000AC6H   BLOCK     CODE     ---       LVL=0
      01000AC6H   LINE      ---      ---       #68
      00000049H   SYMBOL    DATA     ---       buffer
      0000004CH   SYMBOL    DATA     ---       EECurrentAddr
      01000ACCH   BLOCK     CODE     NEAR LAB  LVL=1
      01000ACCH   LINE      ---      ---       #69
      01000ADFH   LINE      ---      ---       #70
      01000AE8H   LINE      ---      ---       #71
      01000AEDH   LINE      ---      ---       #73
      01000AF5H   LINE      ---      ---       #74
      01000B03H   LINE      ---      ---       #75
      01000B0AH   LINE      ---      ---       #77
      01000B19H   LINE      ---      ---       #78
      01000B25H   LINE      ---      ---       #80
      01000B33H   LINE      ---      ---       #81
      01000B3BH   LINE      ---      ---       #82
      01000B47H   LINE      ---      ---       #83
      01000B56H   LINE      ---      ---       #84
LX51 LINKER/LOCATER V4.66.41.0                                                        03/18/2016  11:02:42  PAGE 60


      01000B5BH   LINE      ---      ---       #85
      01000B5DH   LINE      ---      ---       #86
      01000B65H   LINE      ---      ---       #87
      01000B65H   LINE      ---      ---       #88
      01000B70H   LINE      ---      ---       #89
      01000B72H   LINE      ---      ---       #90
      0200F0EDH   SYMBOL    XDATA    ---       pageBuffer
      0000004FH   SYMBOL    DATA     ---       currentCharacter
      00000052H   SYMBOL    DATA     INT       i
      ---         BLOCKEND  CODE     ---       LVL=1
      ---         BLOCKEND  CODE     ---       LVL=0

      ---         MODULE    ---      ---       ?C_INIT
      0100049AH   PUBLIC    CODE     ---       ?C_START

      ---         MODULE    ---      ---       ?C?COPY
      010000F6H   PUBLIC    CODE     ---       ?C?COPY

      ---         MODULE    ---      ---       ?C?CLDPTR
      0100011CH   PUBLIC    CODE     ---       ?C?CLDPTR

      ---         MODULE    ---      ---       ?C?CLDOPTR
      01000135H   PUBLIC    CODE     ---       ?C?CLDOPTR

      ---         MODULE    ---      ---       ?C?ILDPTR
      01000162H   PUBLIC    CODE     ---       ?C?ILDPTR

      ---         MODULE    ---      ---       ?C?IILDPTR
      0100018DH   PUBLIC    CODE     ---       ?C?IILDPTR

      ---         MODULE    ---      ---       ?C?ISTPTR
      010001C5H   PUBLIC    CODE     ---       ?C?ISTPTR

      ---         MODULE    ---      ---       STRNCPY
      00000049H   PUBLIC    DATA     ---       ?_STRNCPY?BYTE
      0100054EH   PUBLIC    CODE     ---       _STRNCPY

      ---         MODULE    ---      ---       STRLEN
      01000003H   PUBLIC    CODE     ---       _STRLEN

      ---         MODULE    ---      ---       ?C?MEMSET
      010001E4H   PUBLIC    CODE     ---       ?C?MEMSET

      ---         MODULE    ---      ---       ?C?CSTOPTR
      01000210H   PUBLIC    CODE     ---       ?C?CSTOPTR

      ---         MODULE    ---      ---       ?C?IILDX
      01000232H   PUBLIC    CODE     ---       ?C?IILDX



*** WARNING L57: UNCALLED FUNCTION, IGNORED FOR OVERLAY PROCESS
    NAME:    FLASH_ERASE_ABORT/FLASHHANDLER

Program Size: data=78.4 xdata=469 const=32 code=2956
LX51 RUN COMPLETE.  1 WARNING(S),  0 ERROR(S)
